

Microchip MPLAB XC8 Assembler V2.20 build 20200408173844 
                                                                                               Tue Dec 08 18:46:59 2020

Microchip MPLAB XC8 C Compiler v2.20 (Free license) build 20200408173844 Og1 
     1                           	processor	18F4520
     2                           	fnconf	rparam,??,?,0
     3                           	pagewidth 120
     4                           	opt	flic
     5                           	psect	idataCOMRAM,global,class=CODE,delta=1,noexec
     6                           	psect	smallconst,global,reloc=2,class=SMALLCONST,delta=1,noexec
     7                           	psect	cinit,global,reloc=2,class=CODE,delta=1
     8                           	psect	dataCOMRAM,global,class=COMRAM,space=1,delta=1,lowdata,noexec
     9                           	psect	cstackCOMRAM,global,class=COMRAM,space=1,delta=1,lowdata,noexec
    10                           	psect	text0,global,reloc=2,class=CODE,delta=1
    11                           	psect	text1,global,reloc=2,class=CODE,delta=1
    12                           	psect	text2,global,reloc=2,class=CODE,delta=1
    13                           	psect	text3,global,reloc=2,class=CODE,delta=1
    14                           	psect	text4,global,reloc=2,class=CODE,delta=1
    15                           	psect	text5,global,reloc=2,class=CODE,delta=1
    16                           	psect	text6,global,reloc=2,class=CODE,delta=1
    17                           	psect	text7,global,reloc=2,class=CODE,delta=1
    18                           	psect	text8,global,reloc=2,class=CODE,delta=1
    19                           	psect	text9,global,reloc=2,class=CODE,delta=1
    20                           	psect	text10,global,reloc=2,class=CODE,delta=1
    21                           	psect	text11,global,reloc=2,class=CODE,delta=1
    22                           	psect	text12,global,reloc=2,class=CODE,delta=1
    23                           	psect	intsave_regs,global,class=BIGRAM,space=1,delta=1,noexec
    24                           	psect	rparam,global,class=COMRAM,space=1,delta=1,noexec
    25                           	psect	idloc,global,abs,ovrld,class=IDLOC,space=5,delta=1,noexec
    26                           	psect	config,global,abs,ovrld,class=CONFIG,space=4,delta=1,noexec
    27  0000                     
    28                           ; Version 2.20
    29                           ; Generated 09/04/2020 GMT
    30                           ; 
    31                           ; Copyright © 2020, Microchip Technology Inc. and its subsidiaries ("Microchip")
    32                           ; All rights reserved.
    33                           ; 
    34                           ; This software is developed by Microchip Technology Inc. and its subsidiaries ("Microch
      +                          ip").
    35                           ; 
    36                           ; Redistribution and use in source and binary forms, with or without modification, are
    37                           ; permitted provided that the following conditions are met:
    38                           ; 
    39                           ;     1. Redistributions of source code must retain the above copyright notice, this lis
      +                          t of
    40                           ;        conditions and the following disclaimer.
    41                           ; 
    42                           ;     2. Redistributions in binary form must reproduce the above copyright notice, this 
      +                          list
    43                           ;        of conditions and the following disclaimer in the documentation and/or other
    44                           ;        materials provided with the distribution.
    45                           ; 
    46                           ;     3. Microchip's name may not be used to endorse or promote products derived from th
      +                          is
    47                           ;        software without specific prior written permission.
    48                           ; 
    49                           ; THIS SOFTWARE IS PROVIDED BY MICROCHIP "AS IS" AND ANY EXPRESS OR IMPLIED WARRANTIES,
    50                           ; INCLUDING, BUT NOT LIMITED TO, THE IMPLIED WARRANTIES OF MERCHANTABILITY AND FITNESS F
      +                          OR
    51                           ; PURPOSE ARE DISCLAIMED.  IN NO EVENT SHALL MICROCHIP BE LIABLE FOR ANY DIRECT, INDIREC
      +                          T,
    52                           ; INCIDENTAL, SPECIAL, EXEMPLARY, OR CONSEQUENTIAL DAMAGES (INCLUDING BUT NOT LIMITED TO
    53                           ; PROCUREMENT OF SUBSTITUTE GOODS OR SERVICES; LOSS OF USE, DATA OR PROFITS; OR BUSINESS
    54                           ; INTERRUPTION) HOWSOEVER CAUSED AND ON ANY THEORY OF LIABILITY, WHETHER IN CONTRACT, ST
      +                          RICT
    55                           ; LIABILITY, OR TORT (INCLUDING NEGLIGENCE OR OTHERWISE) ARISING IN ANY WAY OUT OF THE U
      +                          SE OF
    56                           ; THIS SOFTWARE, EVEN IF ADVISED OF THE POSSIBILITY OF SUCH DAMAGE.
    57                           ; 
    58                           ; 
    59                           ; Code-generator required, PIC18F4520 Definitions
    60                           ; 
    61                           ; SFR Addresses
    62  0000                     
    63                           	psect	idataCOMRAM
    64  00165C                     __pidataCOMRAM:
    65                           	callstack 0
    66                           
    67                           ;initializer for _atraso
    68  00165C  000F               	dw	15
    69                           
    70                           ;initializer for _atraso_min
    71  00165E  0005               	dw	5
    72                           
    73                           ;initializer for _atrasoLed
    74  001660  0096               	dw	150
    75                           
    76                           ;initializer for _atrasoMax2
    77  001662  0BB8               	dw	3000
    78                           
    79                           ;initializer for _atrasoMax
    80  001664  03E8               	dw	1000
    81                           
    82                           ;initializer for _atrasoMed
    83  001666  0096               	dw	150
    84                           
    85                           ;initializer for _atrasoMin
    86  001668  0014               	dw	20
    87                           
    88                           	psect	smallconst
    89  000600                     __psmallconst:
    90                           	callstack 0
    91  000600  00                 	db	0
    92  000601                     _linha:
    93                           	callstack 0
    94  000601  01                 	db	1
    95  000602  02                 	db	2
    96  000603  04                 	db	4
    97  000604  00                 	db	0
    98  000605                     __end_of_linha:
    99                           	callstack 0
   100  000605                     STR_2:
   101  000605  20                 	db	32
   102  000606  52                 	db	82	;'R'
   103  000607  42                 	db	66	;'B'
   104  000608  33                 	db	51	;'3'
   105  000609  2E                 	db	46
   106  00060A  53                 	db	83	;'S'
   107  00060B  61                 	db	97	;'a'
   108  00060C  6C                 	db	108	;'l'
   109  00060D  64                 	db	100	;'d'
   110  00060E  6F                 	db	111	;'o'
   111  00060F  20                 	db	32
   112  000610  52                 	db	82	;'R'
   113  000611  42                 	db	66	;'B'
   114  000612  34                 	db	52	;'4'
   115  000613  2E                 	db	46
   116  000614  44                 	db	68	;'D'
   117  000615  65                 	db	101	;'e'
   118  000616  70                 	db	112	;'p'
   119  000617  6F                 	db	111	;'o'
   120  000618  73                 	db	115	;'s'
   121  000619  69                 	db	105	;'i'
   122  00061A  74                 	db	116	;'t'
   123  00061B  61                 	db	97	;'a'
   124  00061C  72                 	db	114	;'r'
   125  00061D  20                 	db	32
   126  00061E  52                 	db	82	;'R'
   127  00061F  42                 	db	66	;'B'
   128  000620  35                 	db	53	;'5'
   129  000621  2E                 	db	46
   130  000622  53                 	db	83	;'S'
   131  000623  61                 	db	97	;'a'
   132  000624  63                 	db	99	;'c'
   133  000625  61                 	db	97	;'a'
   134  000626  72                 	db	114	;'r'
   135  000627  20                 	db	32
   136  000628  00                 	db	0
   137  000629                     STR_1:
   138  000629  20                 	db	32
   139  00062A  20                 	db	32
   140  00062B  20                 	db	32
   141  00062C  43                 	db	67	;'C'
   142  00062D  61                 	db	97	;'a'
   143  00062E  69                 	db	105	;'i'
   144  00062F  78                 	db	120	;'x'
   145  000630  61                 	db	97	;'a'
   146  000631  20                 	db	32
   147  000632  45                 	db	69	;'E'
   148  000633  6C                 	db	108	;'l'
   149  000634  65                 	db	101	;'e'
   150  000635  74                 	db	116	;'t'
   151  000636  72                 	db	114	;'r'
   152  000637  6F                 	db	111	;'o'
   153  000638  6E                 	db	110	;'n'
   154  000639  69                 	db	105	;'i'
   155  00063A  63                 	db	99	;'c'
   156  00063B  6F                 	db	111	;'o'
   157  00063C  20                 	db	32
   158  00063D  28                 	db	40
   159  00063E  62                 	db	98	;'b'
   160  00063F  61                 	db	97	;'a'
   161  000640  6E                 	db	110	;'n'
   162  000641  63                 	db	99	;'c'
   163  000642  6F                 	db	111	;'o'
   164  000643  20                 	db	32
   165  000644  55                 	db	85	;'U'
   166  000645  4E                 	db	78	;'N'
   167  000646  49                 	db	73	;'I'
   168  000647  46                 	db	70	;'F'
   169  000648  45                 	db	69	;'E'
   170  000649  49                 	db	73	;'I'
   171  00064A  29                 	db	41
   172  00064B  00                 	db	0
   173  00064C                     STR_6:
   174  00064C  20                 	db	32
   175  00064D  52                 	db	82	;'R'
   176  00064E  42                 	db	66	;'B'
   177  00064F  30                 	db	48	;'0'
   178  000650  20                 	db	32
   179  000651  70                 	db	112	;'p'
   180  000652  2F                 	db	47
   181  000653  20                 	db	32
   182  000654  76                 	db	118	;'v'
   183  000655  6F                 	db	111	;'o'
   184  000656  6C                 	db	108	;'l'
   185  000657  74                 	db	116	;'t'
   186  000658  61                 	db	97	;'a'
   187  000659  72                 	db	114	;'r'
   188  00065A  20                 	db	32
   189  00065B  20                 	db	32
   190  00065C  20                 	db	32
   191  00065D  20                 	db	32
   192  00065E  20                 	db	32
   193  00065F  20                 	db	32
   194  000660  20                 	db	32
   195  000661  20                 	db	32
   196  000662  20                 	db	32
   197  000663  20                 	db	32
   198  000664  00                 	db	0
   199  000665                     STR_7:
   200  000665  44                 	db	68	;'D'
   201  000666  65                 	db	101	;'e'
   202  000667  70                 	db	112	;'p'
   203  000668  6F                 	db	111	;'o'
   204  000669  73                 	db	115	;'s'
   205  00066A  69                 	db	105	;'i'
   206  00066B  74                 	db	116	;'t'
   207  00066C  61                 	db	97	;'a'
   208  00066D  72                 	db	114	;'r'
   209  00066E  3A                 	db	58	;':'
   210  00066F  52                 	db	82	;'R'
   211  000670  24                 	db	36
   212  000671  00                 	db	0
   213  000672                     STR_4:
   214  000672  41                 	db	65	;'A'
   215  000673  67                 	db	103	;'g'
   216  000674  75                 	db	117	;'u'
   217  000675  61                 	db	97	;'a'
   218  000676  72                 	db	114	;'r'
   219  000677  64                 	db	100	;'d'
   220  000678  65                 	db	101	;'e'
   221  000679  2E                 	db	46
   222  00067A  2E                 	db	46
   223  00067B  2E                 	db	46
   224  00067C  00                 	db	0
   225  00067D                     STR_5:
   226  00067D  53                 	db	83	;'S'
   227  00067E  61                 	db	97	;'a'
   228  00067F  6C                 	db	108	;'l'
   229  000680  64                 	db	100	;'d'
   230  000681  6F                 	db	111	;'o'
   231  000682  3A                 	db	58	;':'
   232  000683  20                 	db	32
   233  000684  52                 	db	82	;'R'
   234  000685  24                 	db	36
   235  000686  00                 	db	0
   236  000687                     STR_11:
   237  000687  20                 	db	32
   238  000688  43                 	db	67	;'C'
   239  000689  6F                 	db	111	;'o'
   240  00068A  6E                 	db	110	;'n'
   241  00068B  74                 	db	116	;'t'
   242  00068C  61                 	db	97	;'a'
   243  00068D  3A                 	db	58	;':'
   244  00068E  20                 	db	32
   245  00068F  00                 	db	0
   246  000690                     STR_9:
   247  000690  53                 	db	83	;'S'
   248  000691  61                 	db	97	;'a'
   249  000692  63                 	db	99	;'c'
   250  000693  61                 	db	97	;'a'
   251  000694  72                 	db	114	;'r'
   252  000695  3A                 	db	58	;':'
   253  000696  52                 	db	82	;'R'
   254  000697  24                 	db	36
   255  000698  00                 	db	0
   256  000699  00                 	db	0	; dummy byte at the end
   257  0000                     
   258                           ; #config settings
   259                           
   260                           	psect	cinit
   261  0015DA                     __pcinit:
   262                           	callstack 0
   263  0015DA                     start_initialization:
   264                           	callstack 0
   265  0015DA                     __initialization:
   266                           	callstack 0
   267                           
   268                           ; Initialize objects allocated to COMRAM (14 bytes)
   269                           ; load TBLPTR registers with __pidataCOMRAM
   270  0015DA  0E5C               	movlw	low __pidataCOMRAM
   271  0015DC  6EF6               	movwf	tblptrl,c
   272  0015DE  0E16               	movlw	high __pidataCOMRAM
   273  0015E0  6EF7               	movwf	tblptrh,c
   274  0015E2  0E00               	movlw	low (__pidataCOMRAM shr (0+16))
   275  0015E4  6EF8               	movwf	tblptru,c
   276  0015E6  EE00  F034         	lfsr	0,__pdataCOMRAM
   277  0015EA  EE10 F00E          	lfsr	1,14
   278  0015EE                     copy_data0:
   279  0015EE  0009               	tblrd		*+
   280  0015F0  CFF5 FFEE          	movff	tablat,postinc0
   281  0015F4  50E5               	movf	postdec1,w,c
   282  0015F6  50E1               	movf	fsr1l,w,c
   283  0015F8  E1FA               	bnz	copy_data0
   284  0015FA                     end_of_initialization:
   285                           	callstack 0
   286  0015FA                     __end_of__initialization:
   287                           	callstack 0
   288  0015FA  0E00               	movlw	low (__Lsmallconst shr (0+16))
   289  0015FC  6EF8               	movwf	tblptru,c
   290  0015FE  0E06               	movlw	high __Lsmallconst
   291  001600  6EF7               	movwf	tblptrh,c
   292  001602  0100               	movlb	0
   293  001604  EF70  F005         	goto	_main	;jump to C main() function
   294                           
   295                           	psect	dataCOMRAM
   296  000034                     __pdataCOMRAM:
   297                           	callstack 0
   298  000034                     _atraso:
   299                           	callstack 0
   300  000034                     	ds	2
   301  000036                     _atraso_min:
   302                           	callstack 0
   303  000036                     	ds	2
   304  000038                     _atrasoLed:
   305                           	callstack 0
   306  000038                     	ds	2
   307  00003A                     _atrasoMax2:
   308                           	callstack 0
   309  00003A                     	ds	2
   310  00003C                     _atrasoMax:
   311                           	callstack 0
   312  00003C                     	ds	2
   313  00003E                     _atrasoMed:
   314                           	callstack 0
   315  00003E                     	ds	2
   316  000040                     _atrasoMin:
   317                           	callstack 0
   318  000040                     	ds	2
   319                           
   320                           	psect	cstackCOMRAM
   321  000001                     __pcstackCOMRAM:
   322                           	callstack 0
   323  000001                     ?_soma:
   324                           	callstack 0
   325  000001                     ?_subtrai:
   326                           	callstack 0
   327  000001                     lcd_wr@val:
   328                           	callstack 0
   329  000001                     atraso_ms@t:
   330                           	callstack 0
   331  000001                     exibeSeg@saldo:
   332                           	callstack 0
   333  000001                     soma@saldo:
   334                           	callstack 0
   335  000001                     subtrai@saldo:
   336                           	callstack 0
   337                           
   338                           ; 4 bytes @ 0x0
   339  000001                     	ds	2
   340  000003                     atraso_ms@i:
   341                           	callstack 0
   342                           
   343                           ; 2 bytes @ 0x2
   344  000003                     	ds	2
   345  000005                     atraso_ms@j:
   346                           	callstack 0
   347  000005                     exibeSeg@k:
   348                           	callstack 0
   349  000005                     soma@dep:
   350                           	callstack 0
   351  000005                     subtrai@sac:
   352                           	callstack 0
   353                           
   354                           ; 4 bytes @ 0x4
   355  000005                     	ds	1
   356  000006                     atraso_ms@k:
   357                           	callstack 0
   358                           
   359                           ; 1 bytes @ 0x5
   360  000006                     	ds	1
   361  000007                     lcd_cmd@val:
   362                           	callstack 0
   363  000007                     lcd_dat@val:
   364                           	callstack 0
   365  000007                     piscaLed@l:
   366                           	callstack 0
   367  000007                     tc_tecla@timeout:
   368                           	callstack 0
   369                           
   370                           ; 2 bytes @ 0x6
   371  000007                     	ds	1
   372  000008                     lcd_str@str:
   373                           	callstack 0
   374                           
   375                           ; 2 bytes @ 0x7
   376  000008                     	ds	1
   377  000009                     ??_soma:
   378  000009                     ??_subtrai:
   379  000009                     tc_tecla@to:
   380                           	callstack 0
   381                           
   382                           ; 2 bytes @ 0x8
   383  000009                     	ds	1
   384  00000A                     ??_lcd_str:
   385                           
   386                           ; 1 bytes @ 0x9
   387  00000A                     	ds	1
   388  00000B                     tc_tecla@tmp:
   389                           	callstack 0
   390                           
   391                           ; 1 bytes @ 0xA
   392  00000B                     	ds	1
   393  00000C                     lcd_str@i:
   394                           	callstack 0
   395  00000C                     tc_tecla@ret:
   396                           	callstack 0
   397                           
   398                           ; 1 bytes @ 0xB
   399  00000C                     	ds	1
   400  00000D                     tc_tecla@i:
   401                           	callstack 0
   402                           
   403                           ; 1 bytes @ 0xC
   404  00000D                     	ds	1
   405  00000E                     ?_leconta:
   406                           	callstack 0
   407  00000E                     leconta@op:
   408                           	callstack 0
   409                           
   410                           ; 2 bytes @ 0xD
   411  00000E                     	ds	4
   412  000012                     soma@i:
   413                           	callstack 0
   414  000012                     subtrai@i:
   415                           	callstack 0
   416                           
   417                           ; 2 bytes @ 0x11
   418  000012                     	ds	1
   419  000013                     leconta@i:
   420                           	callstack 0
   421                           
   422                           ; 1 bytes @ 0x12
   423  000013                     	ds	1
   424  000014                     leconta@j:
   425                           	callstack 0
   426                           
   427                           ; 1 bytes @ 0x13
   428  000014                     	ds	1
   429  000015                     leconta@tmp:
   430                           	callstack 0
   431                           
   432                           ; 1 bytes @ 0x14
   433  000015                     	ds	1
   434  000016                     leconta@saldo:
   435                           	callstack 0
   436                           
   437                           ; 4 bytes @ 0x15
   438  000016                     	ds	4
   439  00001A                     ??_main:
   440                           
   441                           ; 1 bytes @ 0x19
   442  00001A                     	ds	1
   443  00001B                     main@dep:
   444                           	callstack 0
   445                           
   446                           ; 4 bytes @ 0x1A
   447  00001B                     	ds	4
   448  00001F                     main@sac:
   449                           	callstack 0
   450                           
   451                           ; 4 bytes @ 0x1E
   452  00001F                     	ds	4
   453  000023                     main@flag:
   454                           	callstack 0
   455                           
   456                           ; 2 bytes @ 0x22
   457  000023                     	ds	2
   458  000025                     main@conta:
   459                           	callstack 0
   460                           
   461                           ; 4 bytes @ 0x24
   462  000025                     	ds	4
   463  000029                     main@h_141:
   464                           	callstack 0
   465                           
   466                           ; 2 bytes @ 0x28
   467  000029                     	ds	2
   468  00002B                     main@h_151:
   469                           	callstack 0
   470                           
   471                           ; 2 bytes @ 0x2A
   472  00002B                     	ds	2
   473  00002D                     main@est:
   474                           	callstack 0
   475                           
   476                           ; 1 bytes @ 0x2C
   477  00002D                     	ds	1
   478  00002E                     main@h:
   479                           	callstack 0
   480                           
   481                           ; 2 bytes @ 0x2D
   482  00002E                     	ds	2
   483  000030                     main@saldo:
   484                           	callstack 0
   485                           
   486                           ; 4 bytes @ 0x2F
   487  000030                     	ds	4
   488                           
   489 ;;
   490 ;;Main: autosize = 0, tempsize = 1, incstack = 0, save=0
   491 ;;
   492 ;; *************** function _main *****************
   493 ;; Defined at:
   494 ;;		line 10 in file "newmain.c"
   495 ;; Parameters:    Size  Location     Type
   496 ;;		None
   497 ;; Auto vars:     Size  Location     Type
   498 ;;  h               2   40[COMRAM] int 
   499 ;;  h               2   45[COMRAM] int 
   500 ;;  h               2   42[COMRAM] int 
   501 ;;  saldo           4   47[COMRAM] struct valor
   502 ;;  conta           4   36[COMRAM] struct valor
   503 ;;  sac             4   30[COMRAM] struct valor
   504 ;;  dep             4   26[COMRAM] struct valor
   505 ;;  flag            2   34[COMRAM] int 
   506 ;;  est             1   44[COMRAM] unsigned char 
   507 ;; Return value:  Size  Location     Type
   508 ;;                  1    wreg      void 
   509 ;; Registers used:
   510 ;;		wreg, fsr1l, fsr1h, fsr2l, fsr2h, status,2, status,0, tblptrl, tblptrh, tblptru, cstack
   511 ;; Tracked objects:
   512 ;;		On entry : 0/0
   513 ;;		On exit  : 0/0
   514 ;;		Unchanged: 0/0
   515 ;; Data sizes:     COMRAM   BANK0   BANK1   BANK2   BANK3   BANK4   BANK5
   516 ;;      Params:         0       0       0       0       0       0       0
   517 ;;      Locals:        25       0       0       0       0       0       0
   518 ;;      Temps:          1       0       0       0       0       0       0
   519 ;;      Totals:        26       0       0       0       0       0       0
   520 ;;Total ram usage:       26 bytes
   521 ;; Hardware stack levels required when called:    3
   522 ;; This function calls:
   523 ;;		_exibeSeg
   524 ;;		_lcd_cmd
   525 ;;		_lcd_dat
   526 ;;		_lcd_init
   527 ;;		_lcd_str
   528 ;;		_leconta
   529 ;;		_piscaLed
   530 ;;		_soma
   531 ;;		_subtrai
   532 ;; This function is called by:
   533 ;;		Startup code after reset
   534 ;; This function uses a non-reentrant model
   535 ;;
   536                           
   537                           	psect	text0
   538  000AE0                     __ptext0:
   539                           	callstack 0
   540  000AE0                     _main:
   541                           	callstack 28
   542  000AE0                     
   543                           ;newmain.c: 11:     struct valor saldo;;newmain.c: 12:     struct valor dep;;newmain.c: 
      +                          13:     struct valor sac;;newmain.c: 14:     struct valor conta;;newmain.c: 15:     unsi
      +                          gned char est;;newmain.c: 16:     int flag = 0;
   544  000AE0  0E00               	movlw	0
   545  000AE2  6E24               	movwf	(main@flag+1)^0,c
   546  000AE4  0E00               	movlw	0
   547  000AE6  6E23               	movwf	main@flag^0,c
   548                           
   549                           ;newmain.c: 18:     (*(volatile __near unsigned char*)0xFC1) = 0x06;
   550  000AE8  0E06               	movlw	6
   551  000AEA  6EC1               	movwf	193,c	;volatile
   552                           
   553                           ;newmain.c: 19:     (*(volatile __near unsigned char*)0xF95) = 0x00;
   554  000AEC  0E00               	movlw	0
   555  000AEE  6E95               	movwf	149,c	;volatile
   556                           
   557                           ;newmain.c: 20:     (*(volatile __near unsigned char*)0xF96) = 0x00;
   558  000AF0  0E00               	movlw	0
   559  000AF2  6E96               	movwf	150,c	;volatile
   560                           
   561                           ;newmain.c: 21:     (*(volatile __near unsigned char*)0xF93) = 0x01;
   562  000AF4  0E01               	movlw	1
   563  000AF6  6E93               	movwf	147,c	;volatile
   564  000AF8                     
   565                           ;newmain.c: 23:     lcd_init();
   566  000AF8  EC97  F00A         	call	_lcd_init	;wreg free
   567  000AFC                     
   568                           ;newmain.c: 25:     (*(volatile __near unsigned char*)0xF81) = 0xFF;
   569  000AFC  6881               	setf	129,c	;volatile
   570  000AFE                     
   571                           ;newmain.c: 27:     lcd_cmd(0x01);
   572  000AFE  0E01               	movlw	1
   573  000B00  EC19  F00B         	call	_lcd_cmd
   574  000B04                     
   575                           ;newmain.c: 28:     lcd_cmd(0x80);
   576  000B04  0E80               	movlw	128
   577  000B06  EC19  F00B         	call	_lcd_cmd
   578  000B0A                     
   579                           ;newmain.c: 29:     lcd_str("   Caixa Eletronico (banco UNIFEI)");
   580  000B0A  0E29               	movlw	low STR_1
   581  000B0C  6E08               	movwf	lcd_str@str^0,c
   582  000B0E  0E06               	movlw	high STR_1
   583  000B10  6E09               	movwf	(lcd_str@str+1)^0,c
   584  000B12  ECC5  F00A         	call	_lcd_str	;wreg free
   585  000B16                     l2147:
   586                           
   587                           ;newmain.c: 32:         (*(volatile __near unsigned char*)0xF92) = 0x20;
   588  000B16  0E20               	movlw	32
   589  000B18  6E92               	movwf	146,c	;volatile
   590  000B1A                     
   591                           ;newmain.c: 33:         (*(volatile __near unsigned char*)0xF93) = 0x3F;
   592  000B1A  0E3F               	movlw	63
   593  000B1C  6E93               	movwf	147,c	;volatile
   594  000B1E                     
   595                           ;newmain.c: 35:         lcd_cmd(0xC0);
   596  000B1E  0EC0               	movlw	192
   597  000B20  EC19  F00B         	call	_lcd_cmd
   598  000B24                     
   599                           ;newmain.c: 36:         lcd_str(" RB3.Saldo RB4.Depositar RB5.Sacar ");
   600  000B24  0E05               	movlw	low STR_2
   601  000B26  6E08               	movwf	lcd_str@str^0,c
   602  000B28  0E06               	movlw	high STR_2
   603  000B2A  6E09               	movwf	(lcd_str@str+1)^0,c
   604  000B2C  ECC5  F00A         	call	_lcd_str	;wreg free
   605  000B30                     
   606                           ;newmain.c: 39:         lcd_cmd(0x18);
   607  000B30  0E18               	movlw	24
   608  000B32  EC19  F00B         	call	_lcd_cmd
   609  000B36                     
   610                           ;newmain.c: 41:         if (!(((*(volatile __near unsigned char*)0xF81)) & (1<<3)) || !(
      +                          ((*(volatile __near unsigned char*)0xF81)) & (1<<4)) || !(((*(volatile __near unsigned c
      +                          har*)0xF81)) & (1<<5))) {
   611  000B36  A681               	btfss	129,3,c	;volatile
   612  000B38  EFA0  F005         	goto	u1681
   613  000B3C  EFA2  F005         	goto	u1680
   614  000B40                     u1681:
   615  000B40  EFB0  F005         	goto	l200
   616  000B44                     u1680:
   617  000B44  A881               	btfss	129,4,c	;volatile
   618  000B46  EFA7  F005         	goto	u1691
   619  000B4A  EFA9  F005         	goto	u1690
   620  000B4E                     u1691:
   621  000B4E  EFB0  F005         	goto	l200
   622  000B52                     u1690:
   623  000B52  BA81               	btfsc	129,5,c	;volatile
   624  000B54  EFAE  F005         	goto	u1701
   625  000B58  EFB0  F005         	goto	u1700
   626  000B5C                     u1701:
   627  000B5C  EF12  F007         	goto	l2305
   628  000B60                     u1700:
   629  000B60                     l200:
   630                           
   631                           ;newmain.c: 42:             est = (*(volatile __near unsigned char*)0xF81);
   632  000B60  CF81 F02D          	movff	3969,main@est	;volatile
   633  000B64                     
   634                           ;newmain.c: 44:             if (flag == 0) {
   635  000B64  5023               	movf	main@flag^0,w,c
   636  000B66  1024               	iorwf	(main@flag+1)^0,w,c
   637  000B68  A4D8               	btfss	status,2,c
   638  000B6A  EFB9  F005         	goto	u1711
   639  000B6E  EFBB  F005         	goto	u1710
   640  000B72                     u1711:
   641  000B72  EF07  F006         	goto	l2193
   642  000B76                     u1710:
   643  000B76                     
   644                           ;newmain.c: 45:                 (*(volatile __near unsigned char*)0xF93) = 0xF8;
   645  000B76  0EF8               	movlw	248
   646  000B78  6E93               	movwf	147,c	;volatile
   647  000B7A                     
   648                           ;newmain.c: 47:                 lcd_cmd(0x01);
   649  000B7A  0E01               	movlw	1
   650  000B7C  EC19  F00B         	call	_lcd_cmd
   651  000B80                     
   652                           ;newmain.c: 48:                 lcd_cmd(0x80);
   653  000B80  0E80               	movlw	128
   654  000B82  EC19  F00B         	call	_lcd_cmd
   655  000B86                     
   656                           ;newmain.c: 49:                 lcd_str("Conta: ");
   657  000B86  0E88               	movlw	low (STR_11+1)
   658  000B88  6E08               	movwf	lcd_str@str^0,c
   659  000B8A  0E06               	movlw	high (STR_11+1)
   660  000B8C  6E09               	movwf	(lcd_str@str+1)^0,c
   661  000B8E  ECC5  F00A         	call	_lcd_str	;wreg free
   662  000B92                     
   663                           ;newmain.c: 51:                 saldo = leconta(0);
   664  000B92  0E00               	movlw	0
   665  000B94  6E0F               	movwf	(leconta@op+1)^0,c
   666  000B96  0E00               	movlw	0
   667  000B98  6E0E               	movwf	leconta@op^0,c
   668  000B9A  EC67  F009         	call	_leconta	;wreg free
   669  000B9E  C00E  F030         	movff	?_leconta,main@saldo
   670  000BA2  C00F  F031         	movff	?_leconta+1,main@saldo+1
   671  000BA6  C010  F032         	movff	?_leconta+2,main@saldo+2
   672  000BAA  C011  F033         	movff	?_leconta+3,main@saldo+3
   673  000BAE                     
   674                           ;newmain.c: 52:                 for(int h = 0; h < 4; h++){
   675  000BAE  0E00               	movlw	0
   676  000BB0  6E2F               	movwf	(main@h+1)^0,c
   677  000BB2  0E00               	movlw	0
   678  000BB4  6E2E               	movwf	main@h^0,c
   679  000BB6                     l2181:
   680                           
   681                           ;newmain.c: 53:                     conta.x[h] = saldo.x[h] - h;
   682  000BB6  0E25               	movlw	low main@conta
   683  000BB8  242E               	addwf	main@h^0,w,c
   684  000BBA  6ED9               	movwf	fsr2l,c
   685  000BBC  0E00               	movlw	high main@conta
   686  000BBE  202F               	addwfc	(main@h+1)^0,w,c
   687  000BC0  6EDA               	movwf	fsr2h,c
   688  000BC2  0E30               	movlw	low main@saldo
   689  000BC4  242E               	addwf	main@h^0,w,c
   690  000BC6  6EE1               	movwf	fsr1l,c
   691  000BC8  0E00               	movlw	high main@saldo
   692  000BCA  202F               	addwfc	(main@h+1)^0,w,c
   693  000BCC  6EE2               	movwf	fsr1h,c
   694  000BCE  50E7               	movf	indf1,w,c
   695  000BD0  6E1A               	movwf	??_main^0,c
   696  000BD2  502E               	movf	main@h^0,w,c
   697  000BD4  5C1A               	subwf	??_main^0,w,c
   698  000BD6  6EDF               	movwf	indf2,c
   699  000BD8                     
   700                           ;newmain.c: 54:                 }
   701  000BD8  4A2E               	infsnz	main@h^0,f,c
   702  000BDA  2A2F               	incf	(main@h+1)^0,f,c
   703  000BDC  BE2F               	btfsc	(main@h+1)^0,7,c
   704  000BDE  EFFA  F005         	goto	u1721
   705  000BE2  502F               	movf	(main@h+1)^0,w,c
   706  000BE4  E109               	bnz	u1720
   707  000BE6  0E04               	movlw	4
   708  000BE8  5C2E               	subwf	main@h^0,w,c
   709  000BEA  A0D8               	btfss	status,0,c
   710  000BEC  EFFA  F005         	goto	u1721
   711  000BF0  EFFC  F005         	goto	u1720
   712  000BF4                     u1721:
   713  000BF4  EFDB  F005         	goto	l2181
   714  000BF8                     u1720:
   715  000BF8                     
   716                           ;newmain.c: 56:                 lcd_cmd(0xC0);
   717  000BF8  0EC0               	movlw	192
   718  000BFA  EC19  F00B         	call	_lcd_cmd
   719  000BFE                     
   720                           ;newmain.c: 57:                 lcd_str("Aguarde...");
   721  000BFE  0E72               	movlw	low STR_4
   722  000C00  6E08               	movwf	lcd_str@str^0,c
   723  000C02  0E06               	movlw	high STR_4
   724  000C04  6E09               	movwf	(lcd_str@str+1)^0,c
   725  000C06  ECC5  F00A         	call	_lcd_str	;wreg free
   726  000C0A                     
   727                           ;newmain.c: 58:                 piscaLed();
   728  000C0A  EC2A  F008         	call	_piscaLed	;wreg free
   729  000C0E                     l2193:
   730                           
   731                           ;newmain.c: 62:             if (!((est) & (1<<3))) {
   732  000C0E  B62D               	btfsc	main@est^0,3,c
   733  000C10  EF0C  F006         	goto	u1731
   734  000C14  EF0E  F006         	goto	u1730
   735  000C18                     u1731:
   736  000C18  EF56  F006         	goto	l2231
   737  000C1C                     u1730:
   738  000C1C                     
   739                           ;newmain.c: 63:                 lcd_cmd(0x01);
   740  000C1C  0E01               	movlw	1
   741  000C1E  EC19  F00B         	call	_lcd_cmd
   742                           
   743                           ;newmain.c: 64:                 lcd_cmd(0x80);
   744  000C22  0E80               	movlw	128
   745  000C24  EC19  F00B         	call	_lcd_cmd
   746  000C28                     
   747                           ;newmain.c: 66:                 lcd_str("Saldo: R$");
   748  000C28  0E7D               	movlw	low STR_5
   749  000C2A  6E08               	movwf	lcd_str@str^0,c
   750  000C2C  0E06               	movlw	high STR_5
   751  000C2E  6E09               	movwf	(lcd_str@str+1)^0,c
   752  000C30  ECC5  F00A         	call	_lcd_str	;wreg free
   753  000C34                     
   754                           ;newmain.c: 67:                 for (int h = 0; h < 4; h++) {
   755  000C34  0E00               	movlw	0
   756  000C36  6E2A               	movwf	(main@h_141+1)^0,c
   757  000C38  0E00               	movlw	0
   758  000C3A  6E29               	movwf	main@h_141^0,c
   759  000C3C                     l2205:
   760                           
   761                           ;newmain.c: 68:                     lcd_dat(saldo.x[h]);
   762  000C3C  0E30               	movlw	low main@saldo
   763  000C3E  2429               	addwf	main@h_141^0,w,c
   764  000C40  6ED9               	movwf	fsr2l,c
   765  000C42  0E00               	movlw	high main@saldo
   766  000C44  202A               	addwfc	(main@h_141+1)^0,w,c
   767  000C46  6EDA               	movwf	fsr2h,c
   768  000C48  50DF               	movf	indf2,w,c
   769  000C4A  EC04  F00B         	call	_lcd_dat
   770  000C4E                     
   771                           ;newmain.c: 69:                 }
   772  000C4E  4A29               	infsnz	main@h_141^0,f,c
   773  000C50  2A2A               	incf	(main@h_141+1)^0,f,c
   774  000C52  BE2A               	btfsc	(main@h_141+1)^0,7,c
   775  000C54  EF35  F006         	goto	u1741
   776  000C58  502A               	movf	(main@h_141+1)^0,w,c
   777  000C5A  E109               	bnz	u1740
   778  000C5C  0E04               	movlw	4
   779  000C5E  5C29               	subwf	main@h_141^0,w,c
   780  000C60  A0D8               	btfss	status,0,c
   781  000C62  EF35  F006         	goto	u1741
   782  000C66  EF37  F006         	goto	u1740
   783  000C6A                     u1741:
   784  000C6A  EF1E  F006         	goto	l2205
   785  000C6E                     u1740:
   786  000C6E                     
   787                           ;newmain.c: 71:                 (*(volatile __near unsigned char*)0xF92) = 0x20;
   788  000C6E  0E20               	movlw	32
   789  000C70  6E92               	movwf	146,c	;volatile
   790                           
   791                           ;newmain.c: 72:                 (*(volatile __near unsigned char*)0xF93) = 0x3F;
   792  000C72  0E3F               	movlw	63
   793  000C74  6E93               	movwf	147,c	;volatile
   794  000C76                     
   795                           ;newmain.c: 74:                 lcd_cmd(0xC0);
   796  000C76  0EC0               	movlw	192
   797  000C78  EC19  F00B         	call	_lcd_cmd
   798  000C7C                     
   799                           ;newmain.c: 75:                 lcd_str(" RB0 p/ voltar          ");
   800  000C7C  0E4C               	movlw	low STR_6
   801  000C7E  6E08               	movwf	lcd_str@str^0,c
   802  000C80  0E06               	movlw	high STR_6
   803  000C82  6E09               	movwf	(lcd_str@str+1)^0,c
   804  000C84  ECC5  F00A         	call	_lcd_str	;wreg free
   805  000C88                     
   806                           ;newmain.c: 76:                 exibeSeg(saldo);
   807  000C88  C030  F001         	movff	main@saldo,exibeSeg@saldo
   808  000C8C  C031  F002         	movff	main@saldo+1,exibeSeg@saldo+1
   809  000C90  C032  F003         	movff	main@saldo+2,exibeSeg@saldo+2
   810  000C94  C033  F004         	movff	main@saldo+3,exibeSeg@saldo+3
   811  000C98  EC4D  F003         	call	_exibeSeg	;wreg free
   812  000C9C                     
   813                           ;newmain.c: 78:                 (((*(volatile __near unsigned char*)0xF80)) &= ~(1<<5));
   814  000C9C  9A80               	bcf	128,5,c	;volatile
   815  000C9E                     
   816                           ;newmain.c: 79:                 (((*(volatile __near unsigned char*)0xF80)) &= ~(1<<4));
   817  000C9E  9880               	bcf	128,4,c	;volatile
   818  000CA0                     
   819                           ;newmain.c: 80:                 (((*(volatile __near unsigned char*)0xF80)) &= ~(1<<3));
   820  000CA0  9680               	bcf	128,3,c	;volatile
   821  000CA2                     
   822                           ;newmain.c: 81:                 (((*(volatile __near unsigned char*)0xF80)) &= ~(1<<2));
   823  000CA2  9480               	bcf	128,2,c	;volatile
   824  000CA4                     
   825                           ;newmain.c: 83:                 lcd_cmd(0x01);
   826  000CA4  0E01               	movlw	1
   827  000CA6  EC19  F00B         	call	_lcd_cmd
   828  000CAA                     
   829                           ;newmain.c: 84:                 (*(volatile __near unsigned char*)0xF81) = 0xFF;
   830  000CAA  6881               	setf	129,c	;volatile
   831  000CAC                     l2231:
   832                           
   833                           ;newmain.c: 86:             if (!((est) & (1<<4))) {
   834  000CAC  B82D               	btfsc	main@est^0,4,c
   835  000CAE  EF5B  F006         	goto	u1751
   836  000CB2  EF5D  F006         	goto	u1750
   837  000CB6                     u1751:
   838  000CB6  EFB2  F006         	goto	l2267
   839  000CBA                     u1750:
   840  000CBA                     
   841                           ;newmain.c: 87:                 (*(volatile __near unsigned char*)0xF93) = 0xF8;
   842  000CBA  0EF8               	movlw	248
   843  000CBC  6E93               	movwf	147,c	;volatile
   844  000CBE                     
   845                           ;newmain.c: 89:                 lcd_cmd(0x01);
   846  000CBE  0E01               	movlw	1
   847  000CC0  EC19  F00B         	call	_lcd_cmd
   848  000CC4                     
   849                           ;newmain.c: 90:                 lcd_cmd(0x80);
   850  000CC4  0E80               	movlw	128
   851  000CC6  EC19  F00B         	call	_lcd_cmd
   852  000CCA                     
   853                           ;newmain.c: 91:                 lcd_str("Depositar:R$");
   854  000CCA  0E65               	movlw	low STR_7
   855  000CCC  6E08               	movwf	lcd_str@str^0,c
   856  000CCE  0E06               	movlw	high STR_7
   857  000CD0  6E09               	movwf	(lcd_str@str+1)^0,c
   858  000CD2  ECC5  F00A         	call	_lcd_str	;wreg free
   859  000CD6                     
   860                           ;newmain.c: 92:                 dep = leconta(1);
   861  000CD6  0E00               	movlw	0
   862  000CD8  6E0F               	movwf	(leconta@op+1)^0,c
   863  000CDA  0E01               	movlw	1
   864  000CDC  6E0E               	movwf	leconta@op^0,c
   865  000CDE  EC67  F009         	call	_leconta	;wreg free
   866  000CE2  C00E  F01B         	movff	?_leconta,main@dep
   867  000CE6  C00F  F01C         	movff	?_leconta+1,main@dep+1
   868  000CEA  C010  F01D         	movff	?_leconta+2,main@dep+2
   869  000CEE  C011  F01E         	movff	?_leconta+3,main@dep+3
   870  000CF2                     
   871                           ;newmain.c: 93:                 saldo = soma(saldo, dep);
   872  000CF2  C030  F001         	movff	main@saldo,soma@saldo
   873  000CF6  C031  F002         	movff	main@saldo+1,soma@saldo+1
   874  000CFA  C032  F003         	movff	main@saldo+2,soma@saldo+2
   875  000CFE  C033  F004         	movff	main@saldo+3,soma@saldo+3
   876  000D02  C01B  F005         	movff	main@dep,soma@dep
   877  000D06  C01C  F006         	movff	main@dep+1,soma@dep+1
   878  000D0A  C01D  F007         	movff	main@dep+2,soma@dep+2
   879  000D0E  C01E  F008         	movff	main@dep+3,soma@dep+3
   880  000D12  ECEB  F009         	call	_soma	;wreg free
   881  000D16  C001  F030         	movff	?_soma,main@saldo
   882  000D1A  C002  F031         	movff	?_soma+1,main@saldo+1
   883  000D1E  C003  F032         	movff	?_soma+2,main@saldo+2
   884  000D22  C004  F033         	movff	?_soma+3,main@saldo+3
   885  000D26                     
   886                           ;newmain.c: 95:                 (*(volatile __near unsigned char*)0xF92) = 0x20;
   887  000D26  0E20               	movlw	32
   888  000D28  6E92               	movwf	146,c	;volatile
   889  000D2A                     
   890                           ;newmain.c: 96:                 (*(volatile __near unsigned char*)0xF93) = 0x3F;
   891  000D2A  0E3F               	movlw	63
   892  000D2C  6E93               	movwf	147,c	;volatile
   893  000D2E                     
   894                           ;newmain.c: 98:                 lcd_cmd(0xC0);
   895  000D2E  0EC0               	movlw	192
   896  000D30  EC19  F00B         	call	_lcd_cmd
   897  000D34                     
   898                           ;newmain.c: 99:                 lcd_str(" RB0 p/ voltar          ");
   899  000D34  0E4C               	movlw	low STR_6
   900  000D36  6E08               	movwf	lcd_str@str^0,c
   901  000D38  0E06               	movlw	high STR_6
   902  000D3A  6E09               	movwf	(lcd_str@str+1)^0,c
   903  000D3C  ECC5  F00A         	call	_lcd_str	;wreg free
   904  000D40                     
   905                           ;newmain.c: 100:                 exibeSeg(saldo);
   906  000D40  C030  F001         	movff	main@saldo,exibeSeg@saldo
   907  000D44  C031  F002         	movff	main@saldo+1,exibeSeg@saldo+1
   908  000D48  C032  F003         	movff	main@saldo+2,exibeSeg@saldo+2
   909  000D4C  C033  F004         	movff	main@saldo+3,exibeSeg@saldo+3
   910  000D50  EC4D  F003         	call	_exibeSeg	;wreg free
   911  000D54                     
   912                           ;newmain.c: 102:                 (((*(volatile __near unsigned char*)0xF80)) &= ~(1<<5))
      +                          ;
   913  000D54  9A80               	bcf	128,5,c	;volatile
   914  000D56                     
   915                           ;newmain.c: 103:                 (((*(volatile __near unsigned char*)0xF80)) &= ~(1<<4))
      +                          ;
   916  000D56  9880               	bcf	128,4,c	;volatile
   917  000D58                     
   918                           ;newmain.c: 104:                 (((*(volatile __near unsigned char*)0xF80)) &= ~(1<<3))
      +                          ;
   919  000D58  9680               	bcf	128,3,c	;volatile
   920  000D5A                     
   921                           ;newmain.c: 105:                 (((*(volatile __near unsigned char*)0xF80)) &= ~(1<<2))
      +                          ;
   922  000D5A  9480               	bcf	128,2,c	;volatile
   923  000D5C                     
   924                           ;newmain.c: 107:                 lcd_cmd(0x01);
   925  000D5C  0E01               	movlw	1
   926  000D5E  EC19  F00B         	call	_lcd_cmd
   927  000D62                     
   928                           ;newmain.c: 108:                 (*(volatile __near unsigned char*)0xF81) = 0xFF;
   929  000D62  6881               	setf	129,c	;volatile
   930  000D64                     l2267:
   931                           
   932                           ;newmain.c: 111:             if (!((est) & (1<<5))) {
   933  000D64  BA2D               	btfsc	main@est^0,5,c
   934  000D66  EFB7  F006         	goto	u1761
   935  000D6A  EFB9  F006         	goto	u1760
   936  000D6E                     u1761:
   937  000D6E  EF0E  F007         	goto	l2303
   938  000D72                     u1760:
   939  000D72                     
   940                           ;newmain.c: 112:                 (*(volatile __near unsigned char*)0xF93) = 0xF8;
   941  000D72  0EF8               	movlw	248
   942  000D74  6E93               	movwf	147,c	;volatile
   943  000D76                     
   944                           ;newmain.c: 114:                 lcd_cmd(0x01);
   945  000D76  0E01               	movlw	1
   946  000D78  EC19  F00B         	call	_lcd_cmd
   947  000D7C                     
   948                           ;newmain.c: 115:                 lcd_cmd(0x80);
   949  000D7C  0E80               	movlw	128
   950  000D7E  EC19  F00B         	call	_lcd_cmd
   951  000D82                     
   952                           ;newmain.c: 116:                 lcd_str("Sacar:R$");
   953  000D82  0E90               	movlw	low STR_9
   954  000D84  6E08               	movwf	lcd_str@str^0,c
   955  000D86  0E06               	movlw	high STR_9
   956  000D88  6E09               	movwf	(lcd_str@str+1)^0,c
   957  000D8A  ECC5  F00A         	call	_lcd_str	;wreg free
   958  000D8E                     
   959                           ;newmain.c: 117:                 sac = leconta(1);
   960  000D8E  0E00               	movlw	0
   961  000D90  6E0F               	movwf	(leconta@op+1)^0,c
   962  000D92  0E01               	movlw	1
   963  000D94  6E0E               	movwf	leconta@op^0,c
   964  000D96  EC67  F009         	call	_leconta	;wreg free
   965  000D9A  C00E  F01F         	movff	?_leconta,main@sac
   966  000D9E  C00F  F020         	movff	?_leconta+1,main@sac+1
   967  000DA2  C010  F021         	movff	?_leconta+2,main@sac+2
   968  000DA6  C011  F022         	movff	?_leconta+3,main@sac+3
   969  000DAA                     
   970                           ;newmain.c: 118:                 saldo = subtrai(saldo, sac);
   971  000DAA  C030  F001         	movff	main@saldo,subtrai@saldo
   972  000DAE  C031  F002         	movff	main@saldo+1,subtrai@saldo+1
   973  000DB2  C032  F003         	movff	main@saldo+2,subtrai@saldo+2
   974  000DB6  C033  F004         	movff	main@saldo+3,subtrai@saldo+3
   975  000DBA  C01F  F005         	movff	main@sac,subtrai@sac
   976  000DBE  C020  F006         	movff	main@sac+1,subtrai@sac+1
   977  000DC2  C021  F007         	movff	main@sac+2,subtrai@sac+2
   978  000DC6  C022  F008         	movff	main@sac+3,subtrai@sac+3
   979  000DCA  ECE0  F008         	call	_subtrai	;wreg free
   980  000DCE  C001  F030         	movff	?_subtrai,main@saldo
   981  000DD2  C002  F031         	movff	?_subtrai+1,main@saldo+1
   982  000DD6  C003  F032         	movff	?_subtrai+2,main@saldo+2
   983  000DDA  C004  F033         	movff	?_subtrai+3,main@saldo+3
   984  000DDE                     
   985                           ;newmain.c: 120:                 (*(volatile __near unsigned char*)0xF92) = 0x20;
   986  000DDE  0E20               	movlw	32
   987  000DE0  6E92               	movwf	146,c	;volatile
   988  000DE2                     
   989                           ;newmain.c: 121:                 (*(volatile __near unsigned char*)0xF93) = 0x3F;
   990  000DE2  0E3F               	movlw	63
   991  000DE4  6E93               	movwf	147,c	;volatile
   992  000DE6                     
   993                           ;newmain.c: 123:                 lcd_cmd(0xC0);
   994  000DE6  0EC0               	movlw	192
   995  000DE8  EC19  F00B         	call	_lcd_cmd
   996  000DEC                     
   997                           ;newmain.c: 124:                 lcd_str(" RB0 p/ voltar          ");
   998  000DEC  0E4C               	movlw	low STR_6
   999  000DEE  6E08               	movwf	lcd_str@str^0,c
  1000  000DF0  0E06               	movlw	high STR_6
  1001  000DF2  6E09               	movwf	(lcd_str@str+1)^0,c
  1002  000DF4  ECC5  F00A         	call	_lcd_str	;wreg free
  1003  000DF8                     
  1004                           ;newmain.c: 125:                 exibeSeg(saldo);
  1005  000DF8  C030  F001         	movff	main@saldo,exibeSeg@saldo
  1006  000DFC  C031  F002         	movff	main@saldo+1,exibeSeg@saldo+1
  1007  000E00  C032  F003         	movff	main@saldo+2,exibeSeg@saldo+2
  1008  000E04  C033  F004         	movff	main@saldo+3,exibeSeg@saldo+3
  1009  000E08  EC4D  F003         	call	_exibeSeg	;wreg free
  1010  000E0C                     
  1011                           ;newmain.c: 127:                 (((*(volatile __near unsigned char*)0xF80)) &= ~(1<<5))
      +                          ;
  1012  000E0C  9A80               	bcf	128,5,c	;volatile
  1013  000E0E                     
  1014                           ;newmain.c: 128:                 (((*(volatile __near unsigned char*)0xF80)) &= ~(1<<4))
      +                          ;
  1015  000E0E  9880               	bcf	128,4,c	;volatile
  1016  000E10                     
  1017                           ;newmain.c: 129:                 (((*(volatile __near unsigned char*)0xF80)) &= ~(1<<3))
      +                          ;
  1018  000E10  9680               	bcf	128,3,c	;volatile
  1019  000E12                     
  1020                           ;newmain.c: 130:                 (((*(volatile __near unsigned char*)0xF80)) &= ~(1<<2))
      +                          ;
  1021  000E12  9480               	bcf	128,2,c	;volatile
  1022  000E14                     
  1023                           ;newmain.c: 132:                 lcd_cmd(0x01);
  1024  000E14  0E01               	movlw	1
  1025  000E16  EC19  F00B         	call	_lcd_cmd
  1026  000E1A                     
  1027                           ;newmain.c: 133:                 (*(volatile __near unsigned char*)0xF81) = 0xFF;
  1028  000E1A  6881               	setf	129,c	;volatile
  1029  000E1C                     l2303:
  1030                           
  1031                           ;newmain.c: 135:             flag = 1;
  1032  000E1C  0E00               	movlw	0
  1033  000E1E  6E24               	movwf	(main@flag+1)^0,c
  1034  000E20  0E01               	movlw	1
  1035  000E22  6E23               	movwf	main@flag^0,c
  1036  000E24                     l2305:
  1037                           
  1038                           ;newmain.c: 137:         if(flag == 1){
  1039  000E24  0423               	decf	main@flag^0,w,c
  1040  000E26  1024               	iorwf	(main@flag+1)^0,w,c
  1041  000E28  A4D8               	btfss	status,2,c
  1042  000E2A  EF19  F007         	goto	u1771
  1043  000E2E  EF1B  F007         	goto	u1770
  1044  000E32                     u1771:
  1045  000E32  EF8B  F005         	goto	l2147
  1046  000E36                     u1770:
  1047  000E36                     
  1048                           ;newmain.c: 138:             lcd_cmd(0x80);
  1049  000E36  0E80               	movlw	128
  1050  000E38  EC19  F00B         	call	_lcd_cmd
  1051  000E3C                     
  1052                           ;newmain.c: 139:             lcd_str(" Conta: ");
  1053  000E3C  0E87               	movlw	low STR_11
  1054  000E3E  6E08               	movwf	lcd_str@str^0,c
  1055  000E40  0E06               	movlw	high STR_11
  1056  000E42  6E09               	movwf	(lcd_str@str+1)^0,c
  1057  000E44  ECC5  F00A         	call	_lcd_str	;wreg free
  1058  000E48                     
  1059                           ;newmain.c: 140:             for (int h = 0; h < 4; h++) {
  1060  000E48  0E00               	movlw	0
  1061  000E4A  6E2C               	movwf	(main@h_151+1)^0,c
  1062  000E4C  0E00               	movlw	0
  1063  000E4E  6E2B               	movwf	main@h_151^0,c
  1064  000E50                     l2317:
  1065                           
  1066                           ;newmain.c: 141:                 lcd_dat(conta.x[h]);
  1067  000E50  0E25               	movlw	low main@conta
  1068  000E52  242B               	addwf	main@h_151^0,w,c
  1069  000E54  6ED9               	movwf	fsr2l,c
  1070  000E56  0E00               	movlw	high main@conta
  1071  000E58  202C               	addwfc	(main@h_151+1)^0,w,c
  1072  000E5A  6EDA               	movwf	fsr2h,c
  1073  000E5C  50DF               	movf	indf2,w,c
  1074  000E5E  EC04  F00B         	call	_lcd_dat
  1075  000E62                     
  1076                           ;newmain.c: 142:             }
  1077  000E62  4A2B               	infsnz	main@h_151^0,f,c
  1078  000E64  2A2C               	incf	(main@h_151+1)^0,f,c
  1079  000E66  BE2C               	btfsc	(main@h_151+1)^0,7,c
  1080  000E68  EF3F  F007         	goto	u1781
  1081  000E6C  502C               	movf	(main@h_151+1)^0,w,c
  1082  000E6E  E109               	bnz	u1780
  1083  000E70  0E04               	movlw	4
  1084  000E72  5C2B               	subwf	main@h_151^0,w,c
  1085  000E74  A0D8               	btfss	status,0,c
  1086  000E76  EF3F  F007         	goto	u1781
  1087  000E7A  EF41  F007         	goto	u1780
  1088  000E7E                     u1781:
  1089  000E7E  EF28  F007         	goto	l2317
  1090  000E82                     u1780:
  1091  000E82  EF8B  F005         	goto	l2147
  1092  000E86  EF00  F000         	goto	start
  1093  000E8A                     __end_of_main:
  1094                           	callstack 0
  1095                           
  1096 ;; *************** function _subtrai *****************
  1097 ;; Defined at:
  1098 ;;		line 284 in file "caixaeletronica.c"
  1099 ;; Parameters:    Size  Location     Type
  1100 ;;  saldo           4    0[COMRAM] struct valor
  1101 ;;  sac             4    4[COMRAM] struct valor
  1102 ;; Auto vars:     Size  Location     Type
  1103 ;;  i               2   17[COMRAM] int 
  1104 ;; Return value:  Size  Location     Type
  1105 ;;                  4    0[COMRAM] struct valor
  1106 ;; Registers used:
  1107 ;;		wreg, fsr1l, fsr1h, fsr2l, fsr2h, status,2, status,0
  1108 ;; Tracked objects:
  1109 ;;		On entry : 0/0
  1110 ;;		On exit  : 0/0
  1111 ;;		Unchanged: 0/0
  1112 ;; Data sizes:     COMRAM   BANK0   BANK1   BANK2   BANK3   BANK4   BANK5
  1113 ;;      Params:         8       0       0       0       0       0       0
  1114 ;;      Locals:         2       0       0       0       0       0       0
  1115 ;;      Temps:          9       0       0       0       0       0       0
  1116 ;;      Totals:        19       0       0       0       0       0       0
  1117 ;;Total ram usage:       19 bytes
  1118 ;; Hardware stack levels used:    1
  1119 ;; This function calls:
  1120 ;;		Nothing
  1121 ;; This function is called by:
  1122 ;;		_main
  1123 ;; This function uses a non-reentrant model
  1124 ;;
  1125                           
  1126                           	psect	text1
  1127  0011C0                     __ptext1:
  1128                           	callstack 0
  1129  0011C0                     _subtrai:
  1130                           	callstack 30
  1131  0011C0                     
  1132                           ;caixaeletronica.c: 285:     for (int i = 3; i > 0; i--) {
  1133  0011C0  0E00               	movlw	0
  1134  0011C2  6E13               	movwf	(subtrai@i+1)^0,c
  1135  0011C4  0E03               	movlw	3
  1136  0011C6  6E12               	movwf	subtrai@i^0,c
  1137  0011C8                     l2109:
  1138                           
  1139                           ;caixaeletronica.c: 286:         if (saldo.x[i] >= sac.x[i]) {
  1140  0011C8  0E05               	movlw	low subtrai@sac
  1141  0011CA  2412               	addwf	subtrai@i^0,w,c
  1142  0011CC  6ED9               	movwf	fsr2l,c
  1143  0011CE  0E00               	movlw	high subtrai@sac
  1144  0011D0  2013               	addwfc	(subtrai@i+1)^0,w,c
  1145  0011D2  6EDA               	movwf	fsr2h,c
  1146  0011D4  0E01               	movlw	low subtrai@saldo
  1147  0011D6  2412               	addwf	subtrai@i^0,w,c
  1148  0011D8  6EE1               	movwf	fsr1l,c
  1149  0011DA  0E00               	movlw	high subtrai@saldo
  1150  0011DC  2013               	addwfc	(subtrai@i+1)^0,w,c
  1151  0011DE  6EE2               	movwf	fsr1h,c
  1152  0011E0  50DE               	movf	postinc2,w,c
  1153  0011E2  5CE6               	subwf	postinc1,w,c
  1154  0011E4  A0D8               	btfss	status,0,c
  1155  0011E6  EFF7  F008         	goto	u1651
  1156  0011EA  EFF9  F008         	goto	u1650
  1157  0011EE                     u1651:
  1158  0011EE  EF15  F009         	goto	l2113
  1159  0011F2                     u1650:
  1160  0011F2                     
  1161                           ;caixaeletronica.c: 287:             saldo.x[i] = saldo.x[i] - sac.x[i] + 0x30;
  1162  0011F2  0E01               	movlw	low subtrai@saldo
  1163  0011F4  2412               	addwf	subtrai@i^0,w,c
  1164  0011F6  6ED9               	movwf	fsr2l,c
  1165  0011F8  0E00               	movlw	high subtrai@saldo
  1166  0011FA  2013               	addwfc	(subtrai@i+1)^0,w,c
  1167  0011FC  6EDA               	movwf	fsr2h,c
  1168  0011FE  0E05               	movlw	low subtrai@sac
  1169  001200  2412               	addwf	subtrai@i^0,w,c
  1170  001202  6EE1               	movwf	fsr1l,c
  1171  001204  0E00               	movlw	high subtrai@sac
  1172  001206  2013               	addwfc	(subtrai@i+1)^0,w,c
  1173  001208  6EE2               	movwf	fsr1h,c
  1174  00120A  50E7               	movf	indf1,w,c
  1175  00120C  6E09               	movwf	??_subtrai^0,c
  1176  00120E  0E01               	movlw	low subtrai@saldo
  1177  001210  2412               	addwf	subtrai@i^0,w,c
  1178  001212  6EE1               	movwf	fsr1l,c
  1179  001214  0E00               	movlw	high subtrai@saldo
  1180  001216  2013               	addwfc	(subtrai@i+1)^0,w,c
  1181  001218  6EE2               	movwf	fsr1h,c
  1182  00121A  50E7               	movf	indf1,w,c
  1183  00121C  6E0A               	movwf	(??_subtrai+1)^0,c
  1184  00121E  5009               	movf	??_subtrai^0,w,c
  1185  001220  5C0A               	subwf	(??_subtrai+1)^0,w,c
  1186  001222  0F30               	addlw	48
  1187  001224  6EDF               	movwf	indf2,c
  1188                           
  1189                           ;caixaeletronica.c: 288:         } else {
  1190  001226  EF4E  F009         	goto	l2117
  1191  00122A                     l2113:
  1192                           
  1193                           ;caixaeletronica.c: 289:             saldo.x[i - 1] = saldo.x[i - 1] - 1;
  1194  00122A  0EFF               	movlw	255
  1195  00122C  6E09               	movwf	??_subtrai^0,c
  1196  00122E  0EFF               	movlw	255
  1197  001230  6E0A               	movwf	(??_subtrai+1)^0,c
  1198  001232  C012  F00B         	movff	subtrai@i,??_subtrai+2
  1199  001236  C013  F00C         	movff	subtrai@i+1,??_subtrai+3
  1200  00123A  5009               	movf	??_subtrai^0,w,c
  1201  00123C  260B               	addwf	(??_subtrai+2)^0,f,c
  1202  00123E  500A               	movf	(??_subtrai+1)^0,w,c
  1203  001240  220C               	addwfc	(??_subtrai+3)^0,f,c
  1204  001242  0E01               	movlw	low subtrai@saldo
  1205  001244  240B               	addwf	(??_subtrai+2)^0,w,c
  1206  001246  6ED9               	movwf	fsr2l,c
  1207  001248  0E00               	movlw	high subtrai@saldo
  1208  00124A  200C               	addwfc	(??_subtrai+3)^0,w,c
  1209  00124C  6EDA               	movwf	fsr2h,c
  1210  00124E  0EFF               	movlw	255
  1211  001250  6E0D               	movwf	(??_subtrai+4)^0,c
  1212  001252  0EFF               	movlw	255
  1213  001254  6E0E               	movwf	(??_subtrai+5)^0,c
  1214  001256  C012  F00F         	movff	subtrai@i,??_subtrai+6
  1215  00125A  C013  F010         	movff	subtrai@i+1,??_subtrai+7
  1216  00125E  500D               	movf	(??_subtrai+4)^0,w,c
  1217  001260  260F               	addwf	(??_subtrai+6)^0,f,c
  1218  001262  500E               	movf	(??_subtrai+5)^0,w,c
  1219  001264  2210               	addwfc	(??_subtrai+7)^0,f,c
  1220  001266  0E01               	movlw	low subtrai@saldo
  1221  001268  240F               	addwf	(??_subtrai+6)^0,w,c
  1222  00126A  6EE1               	movwf	fsr1l,c
  1223  00126C  0E00               	movlw	high subtrai@saldo
  1224  00126E  2010               	addwfc	(??_subtrai+7)^0,w,c
  1225  001270  6EE2               	movwf	fsr1h,c
  1226  001272  50E7               	movf	indf1,w,c
  1227  001274  6E11               	movwf	(??_subtrai+8)^0,c
  1228  001276  0411               	decf	(??_subtrai+8)^0,w,c
  1229  001278  6EDF               	movwf	indf2,c
  1230                           
  1231                           ;caixaeletronica.c: 290:             saldo.x[i] = saldo.x[i] + 10;
  1232  00127A  0E01               	movlw	low subtrai@saldo
  1233  00127C  2412               	addwf	subtrai@i^0,w,c
  1234  00127E  6ED9               	movwf	fsr2l,c
  1235  001280  0E00               	movlw	high subtrai@saldo
  1236  001282  2013               	addwfc	(subtrai@i+1)^0,w,c
  1237  001284  6EDA               	movwf	fsr2h,c
  1238  001286  0E01               	movlw	low subtrai@saldo
  1239  001288  2412               	addwf	subtrai@i^0,w,c
  1240  00128A  6EE1               	movwf	fsr1l,c
  1241  00128C  0E00               	movlw	high subtrai@saldo
  1242  00128E  2013               	addwfc	(subtrai@i+1)^0,w,c
  1243  001290  6EE2               	movwf	fsr1h,c
  1244  001292  50E7               	movf	indf1,w,c
  1245  001294  0F0A               	addlw	10
  1246  001296  6EDF               	movwf	indf2,c
  1247  001298                     
  1248                           ;caixaeletronica.c: 291:             i++;
  1249  001298  4A12               	infsnz	subtrai@i^0,f,c
  1250  00129A  2A13               	incf	(subtrai@i+1)^0,f,c
  1251  00129C                     l2117:
  1252                           
  1253                           ;caixaeletronica.c: 293:     }
  1254  00129C  0612               	decf	subtrai@i^0,f,c
  1255  00129E  A0D8               	btfss	status,0,c
  1256  0012A0  0613               	decf	(subtrai@i+1)^0,f,c
  1257  0012A2  BE13               	btfsc	(subtrai@i+1)^0,7,c
  1258  0012A4  EF5E  F009         	goto	u1660
  1259  0012A8  5013               	movf	(subtrai@i+1)^0,w,c
  1260  0012AA  E106               	bnz	u1661
  1261  0012AC  0412               	decf	subtrai@i^0,w,c
  1262  0012AE  B0D8               	btfsc	status,0,c
  1263  0012B0  EF5C  F009         	goto	u1661
  1264  0012B4  EF5E  F009         	goto	u1660
  1265  0012B8                     u1661:
  1266  0012B8  EFE4  F008         	goto	l2109
  1267  0012BC                     u1660:
  1268  0012BC                     
  1269                           ;caixaeletronica.c: 294:     return saldo;
  1270  0012BC  C001  F001         	movff	subtrai@saldo,?_subtrai
  1271  0012C0  C002  F002         	movff	subtrai@saldo+1,?_subtrai+1
  1272  0012C4  C003  F003         	movff	subtrai@saldo+2,?_subtrai+2
  1273  0012C8  C004  F004         	movff	subtrai@saldo+3,?_subtrai+3
  1274  0012CC  0012               	return		;funcret
  1275  0012CE                     __end_of_subtrai:
  1276                           	callstack 0
  1277                           
  1278 ;; *************** function _soma *****************
  1279 ;; Defined at:
  1280 ;;		line 273 in file "caixaeletronica.c"
  1281 ;; Parameters:    Size  Location     Type
  1282 ;;  saldo           4    0[COMRAM] struct valor
  1283 ;;  dep             4    4[COMRAM] struct valor
  1284 ;; Auto vars:     Size  Location     Type
  1285 ;;  i               2   17[COMRAM] int 
  1286 ;; Return value:  Size  Location     Type
  1287 ;;                  4    0[COMRAM] struct valor
  1288 ;; Registers used:
  1289 ;;		wreg, fsr1l, fsr1h, fsr2l, fsr2h, status,2, status,0
  1290 ;; Tracked objects:
  1291 ;;		On entry : 0/0
  1292 ;;		On exit  : 0/0
  1293 ;;		Unchanged: 0/0
  1294 ;; Data sizes:     COMRAM   BANK0   BANK1   BANK2   BANK3   BANK4   BANK5
  1295 ;;      Params:         8       0       0       0       0       0       0
  1296 ;;      Locals:         2       0       0       0       0       0       0
  1297 ;;      Temps:          9       0       0       0       0       0       0
  1298 ;;      Totals:        19       0       0       0       0       0       0
  1299 ;;Total ram usage:       19 bytes
  1300 ;; Hardware stack levels used:    1
  1301 ;; This function calls:
  1302 ;;		Nothing
  1303 ;; This function is called by:
  1304 ;;		_main
  1305 ;; This function uses a non-reentrant model
  1306 ;;
  1307                           
  1308                           	psect	text2
  1309  0013D6                     __ptext2:
  1310                           	callstack 0
  1311  0013D6                     _soma:
  1312                           	callstack 30
  1313  0013D6                     
  1314                           ;caixaeletronica.c: 274:     for (int i = 3; i > 0; i--) {
  1315  0013D6  0E00               	movlw	0
  1316  0013D8  6E13               	movwf	(soma@i+1)^0,c
  1317  0013DA  0E03               	movlw	3
  1318  0013DC  6E12               	movwf	soma@i^0,c
  1319  0013DE                     l2093:
  1320                           
  1321                           ;caixaeletronica.c: 275:         saldo.x[i] = saldo.x[i] + dep.x[i] - 0x30;
  1322  0013DE  0E01               	movlw	low soma@saldo
  1323  0013E0  2412               	addwf	soma@i^0,w,c
  1324  0013E2  6ED9               	movwf	fsr2l,c
  1325  0013E4  0E00               	movlw	high soma@saldo
  1326  0013E6  2013               	addwfc	(soma@i+1)^0,w,c
  1327  0013E8  6EDA               	movwf	fsr2h,c
  1328  0013EA  0E05               	movlw	low soma@dep
  1329  0013EC  2412               	addwf	soma@i^0,w,c
  1330  0013EE  6EE1               	movwf	fsr1l,c
  1331  0013F0  0E00               	movlw	high soma@dep
  1332  0013F2  2013               	addwfc	(soma@i+1)^0,w,c
  1333  0013F4  6EE2               	movwf	fsr1h,c
  1334  0013F6  50E7               	movf	indf1,w,c
  1335  0013F8  6E09               	movwf	??_soma^0,c
  1336  0013FA  0E01               	movlw	low soma@saldo
  1337  0013FC  2412               	addwf	soma@i^0,w,c
  1338  0013FE  6EE1               	movwf	fsr1l,c
  1339  001400  0E00               	movlw	high soma@saldo
  1340  001402  2013               	addwfc	(soma@i+1)^0,w,c
  1341  001404  6EE2               	movwf	fsr1h,c
  1342  001406  50E7               	movf	indf1,w,c
  1343  001408  2409               	addwf	??_soma^0,w,c
  1344  00140A  0FD0               	addlw	208
  1345  00140C  6EDF               	movwf	indf2,c
  1346  00140E                     
  1347                           ;caixaeletronica.c: 276:         if (saldo.x[i] > 57) {
  1348  00140E  0E01               	movlw	low soma@saldo
  1349  001410  2412               	addwf	soma@i^0,w,c
  1350  001412  6ED9               	movwf	fsr2l,c
  1351  001414  0E00               	movlw	high soma@saldo
  1352  001416  2013               	addwfc	(soma@i+1)^0,w,c
  1353  001418  6EDA               	movwf	fsr2h,c
  1354  00141A  0E39               	movlw	57
  1355  00141C  64DF               	cpfsgt	indf2,c
  1356  00141E  EF13  F00A         	goto	u1631
  1357  001422  EF15  F00A         	goto	u1630
  1358  001426                     u1631:
  1359  001426  EF4C  F00A         	goto	l2099
  1360  00142A                     u1630:
  1361  00142A                     
  1362                           ;caixaeletronica.c: 277:             saldo.x[i] = saldo.x[i] - 10;
  1363  00142A  0E01               	movlw	low soma@saldo
  1364  00142C  2412               	addwf	soma@i^0,w,c
  1365  00142E  6ED9               	movwf	fsr2l,c
  1366  001430  0E00               	movlw	high soma@saldo
  1367  001432  2013               	addwfc	(soma@i+1)^0,w,c
  1368  001434  6EDA               	movwf	fsr2h,c
  1369  001436  0E01               	movlw	low soma@saldo
  1370  001438  2412               	addwf	soma@i^0,w,c
  1371  00143A  6EE1               	movwf	fsr1l,c
  1372  00143C  0E00               	movlw	high soma@saldo
  1373  00143E  2013               	addwfc	(soma@i+1)^0,w,c
  1374  001440  6EE2               	movwf	fsr1h,c
  1375  001442  50E7               	movf	indf1,w,c
  1376  001444  0FF6               	addlw	246
  1377  001446  6EDF               	movwf	indf2,c
  1378                           
  1379                           ;caixaeletronica.c: 278:             saldo.x[i - 1] = saldo.x[i - 1] + 1;
  1380  001448  0EFF               	movlw	255
  1381  00144A  6E09               	movwf	??_soma^0,c
  1382  00144C  0EFF               	movlw	255
  1383  00144E  6E0A               	movwf	(??_soma+1)^0,c
  1384  001450  C012  F00B         	movff	soma@i,??_soma+2
  1385  001454  C013  F00C         	movff	soma@i+1,??_soma+3
  1386  001458  5009               	movf	??_soma^0,w,c
  1387  00145A  260B               	addwf	(??_soma+2)^0,f,c
  1388  00145C  500A               	movf	(??_soma+1)^0,w,c
  1389  00145E  220C               	addwfc	(??_soma+3)^0,f,c
  1390  001460  0E01               	movlw	low soma@saldo
  1391  001462  240B               	addwf	(??_soma+2)^0,w,c
  1392  001464  6ED9               	movwf	fsr2l,c
  1393  001466  0E00               	movlw	high soma@saldo
  1394  001468  200C               	addwfc	(??_soma+3)^0,w,c
  1395  00146A  6EDA               	movwf	fsr2h,c
  1396  00146C  0EFF               	movlw	255
  1397  00146E  6E0D               	movwf	(??_soma+4)^0,c
  1398  001470  0EFF               	movlw	255
  1399  001472  6E0E               	movwf	(??_soma+5)^0,c
  1400  001474  C012  F00F         	movff	soma@i,??_soma+6
  1401  001478  C013  F010         	movff	soma@i+1,??_soma+7
  1402  00147C  500D               	movf	(??_soma+4)^0,w,c
  1403  00147E  260F               	addwf	(??_soma+6)^0,f,c
  1404  001480  500E               	movf	(??_soma+5)^0,w,c
  1405  001482  2210               	addwfc	(??_soma+7)^0,f,c
  1406  001484  0E01               	movlw	low soma@saldo
  1407  001486  240F               	addwf	(??_soma+6)^0,w,c
  1408  001488  6EE1               	movwf	fsr1l,c
  1409  00148A  0E00               	movlw	high soma@saldo
  1410  00148C  2010               	addwfc	(??_soma+7)^0,w,c
  1411  00148E  6EE2               	movwf	fsr1h,c
  1412  001490  50E7               	movf	indf1,w,c
  1413  001492  6E11               	movwf	(??_soma+8)^0,c
  1414  001494  2811               	incf	(??_soma+8)^0,w,c
  1415  001496  6EDF               	movwf	indf2,c
  1416  001498                     l2099:
  1417                           
  1418                           ;caixaeletronica.c: 280:     }
  1419  001498  0612               	decf	soma@i^0,f,c
  1420  00149A  A0D8               	btfss	status,0,c
  1421  00149C  0613               	decf	(soma@i+1)^0,f,c
  1422  00149E  BE13               	btfsc	(soma@i+1)^0,7,c
  1423  0014A0  EF5C  F00A         	goto	u1640
  1424  0014A4  5013               	movf	(soma@i+1)^0,w,c
  1425  0014A6  E106               	bnz	u1641
  1426  0014A8  0412               	decf	soma@i^0,w,c
  1427  0014AA  B0D8               	btfsc	status,0,c
  1428  0014AC  EF5A  F00A         	goto	u1641
  1429  0014B0  EF5C  F00A         	goto	u1640
  1430  0014B4                     u1641:
  1431  0014B4  EFEF  F009         	goto	l2093
  1432  0014B8                     u1640:
  1433  0014B8                     
  1434                           ;caixaeletronica.c: 281:     return saldo;
  1435  0014B8  C001  F001         	movff	soma@saldo,?_soma
  1436  0014BC  C002  F002         	movff	soma@saldo+1,?_soma+1
  1437  0014C0  C003  F003         	movff	soma@saldo+2,?_soma+2
  1438  0014C4  C004  F004         	movff	soma@saldo+3,?_soma+3
  1439  0014C8  0012               	return		;funcret
  1440  0014CA                     __end_of_soma:
  1441                           	callstack 0
  1442                           
  1443 ;; *************** function _piscaLed *****************
  1444 ;; Defined at:
  1445 ;;		line 17 in file "caixaeletronica.c"
  1446 ;; Parameters:    Size  Location     Type
  1447 ;;		None
  1448 ;; Auto vars:     Size  Location     Type
  1449 ;;  l               2    6[COMRAM] int 
  1450 ;; Return value:  Size  Location     Type
  1451 ;;                  1    wreg      void 
  1452 ;; Registers used:
  1453 ;;		wreg, status,2, status,0, cstack
  1454 ;; Tracked objects:
  1455 ;;		On entry : 0/0
  1456 ;;		On exit  : 0/0
  1457 ;;		Unchanged: 0/0
  1458 ;; Data sizes:     COMRAM   BANK0   BANK1   BANK2   BANK3   BANK4   BANK5
  1459 ;;      Params:         0       0       0       0       0       0       0
  1460 ;;      Locals:         2       0       0       0       0       0       0
  1461 ;;      Temps:          0       0       0       0       0       0       0
  1462 ;;      Totals:         2       0       0       0       0       0       0
  1463 ;;Total ram usage:        2 bytes
  1464 ;; Hardware stack levels used:    1
  1465 ;; Hardware stack levels required when called:    1
  1466 ;; This function calls:
  1467 ;;		_atraso_ms
  1468 ;; This function is called by:
  1469 ;;		_main
  1470 ;; This function uses a non-reentrant model
  1471 ;;
  1472                           
  1473                           	psect	text3
  1474  001054                     __ptext3:
  1475                           	callstack 0
  1476  001054                     _piscaLed:
  1477                           	callstack 29
  1478  001054                     
  1479                           ;caixaeletronica.c: 18:     (*(volatile __near unsigned char*)0xF95) = 0x00;
  1480  001054  0E00               	movlw	0
  1481  001056  6E95               	movwf	149,c	;volatile
  1482                           
  1483                           ;caixaeletronica.c: 19:     (*(volatile __near unsigned char*)0xF83) = 0x00;
  1484  001058  0E00               	movlw	0
  1485  00105A  6E83               	movwf	131,c	;volatile
  1486                           
  1487                           ;caixaeletronica.c: 20:     (*(volatile __near unsigned char*)0xF93) = 0x00;
  1488  00105C  0E00               	movlw	0
  1489  00105E  6E93               	movwf	147,c	;volatile
  1490                           
  1491                           ;caixaeletronica.c: 21:     (*(volatile __near unsigned char*)0xF81) = 0x00;
  1492  001060  0E00               	movlw	0
  1493  001062  6E81               	movwf	129,c	;volatile
  1494                           
  1495                           ;caixaeletronica.c: 22:     for (int l = 0; l < 1; l++) {
  1496  001064  0E00               	movlw	0
  1497  001066  6E08               	movwf	(piscaLed@l+1)^0,c
  1498  001068  0E00               	movlw	0
  1499  00106A  6E07               	movwf	piscaLed@l^0,c
  1500  00106C                     l1741:
  1501                           
  1502                           ;caixaeletronica.c: 23:         (*(volatile __near unsigned char*)0xF83) = 0b00000000;
  1503  00106C  0E00               	movlw	0
  1504  00106E  6E83               	movwf	131,c	;volatile
  1505                           
  1506                           ;caixaeletronica.c: 24:         (*(volatile __near unsigned char*)0xF81) = 0b00000000;
  1507  001070  0E00               	movlw	0
  1508  001072  6E81               	movwf	129,c	;volatile
  1509  001074                     
  1510                           ;caixaeletronica.c: 25:         atraso_ms(atrasoLed);
  1511  001074  0E00               	movlw	0
  1512  001076  6E02               	movwf	(atraso_ms@t+1)^0,c
  1513  001078  0E96               	movlw	150
  1514  00107A  6E01               	movwf	atraso_ms@t^0,c
  1515  00107C  EC65  F00A         	call	_atraso_ms	;wreg free
  1516  001080                     
  1517                           ;caixaeletronica.c: 26:         (*(volatile __near unsigned char*)0xF83) = 0b00000001;
  1518  001080  0E01               	movlw	1
  1519  001082  6E83               	movwf	131,c	;volatile
  1520  001084                     
  1521                           ;caixaeletronica.c: 27:         (*(volatile __near unsigned char*)0xF81) = 0b10000000;
  1522  001084  0E80               	movlw	128
  1523  001086  6E81               	movwf	129,c	;volatile
  1524  001088                     
  1525                           ;caixaeletronica.c: 28:         atraso_ms(atrasoLed);
  1526  001088  0E00               	movlw	0
  1527  00108A  6E02               	movwf	(atraso_ms@t+1)^0,c
  1528  00108C  0E96               	movlw	150
  1529  00108E  6E01               	movwf	atraso_ms@t^0,c
  1530  001090  EC65  F00A         	call	_atraso_ms	;wreg free
  1531                           
  1532                           ;caixaeletronica.c: 29:         (*(volatile __near unsigned char*)0xF83) = 0b00000010;
  1533  001094  0E02               	movlw	2
  1534  001096  6E83               	movwf	131,c	;volatile
  1535                           
  1536                           ;caixaeletronica.c: 30:         (*(volatile __near unsigned char*)0xF81) = 0b01000000;
  1537  001098  0E40               	movlw	64
  1538  00109A  6E81               	movwf	129,c	;volatile
  1539  00109C                     
  1540                           ;caixaeletronica.c: 31:         atraso_ms(atrasoLed);
  1541  00109C  0E00               	movlw	0
  1542  00109E  6E02               	movwf	(atraso_ms@t+1)^0,c
  1543  0010A0  0E96               	movlw	150
  1544  0010A2  6E01               	movwf	atraso_ms@t^0,c
  1545  0010A4  EC65  F00A         	call	_atraso_ms	;wreg free
  1546  0010A8                     
  1547                           ;caixaeletronica.c: 32:         (*(volatile __near unsigned char*)0xF83) = 0b00000100;
  1548  0010A8  0E04               	movlw	4
  1549  0010AA  6E83               	movwf	131,c	;volatile
  1550  0010AC                     
  1551                           ;caixaeletronica.c: 33:         (*(volatile __near unsigned char*)0xF81) = 0b00100000;
  1552  0010AC  0E20               	movlw	32
  1553  0010AE  6E81               	movwf	129,c	;volatile
  1554  0010B0                     
  1555                           ;caixaeletronica.c: 34:         atraso_ms(atrasoLed);
  1556  0010B0  0E00               	movlw	0
  1557  0010B2  6E02               	movwf	(atraso_ms@t+1)^0,c
  1558  0010B4  0E96               	movlw	150
  1559  0010B6  6E01               	movwf	atraso_ms@t^0,c
  1560  0010B8  EC65  F00A         	call	_atraso_ms	;wreg free
  1561                           
  1562                           ;caixaeletronica.c: 35:         (*(volatile __near unsigned char*)0xF83) = 0b00001000;
  1563  0010BC  0E08               	movlw	8
  1564  0010BE  6E83               	movwf	131,c	;volatile
  1565                           
  1566                           ;caixaeletronica.c: 36:         (*(volatile __near unsigned char*)0xF81) = 0b00010000;
  1567  0010C0  0E10               	movlw	16
  1568  0010C2  6E81               	movwf	129,c	;volatile
  1569  0010C4                     
  1570                           ;caixaeletronica.c: 37:         atraso_ms(atrasoLed);
  1571  0010C4  0E00               	movlw	0
  1572  0010C6  6E02               	movwf	(atraso_ms@t+1)^0,c
  1573  0010C8  0E96               	movlw	150
  1574  0010CA  6E01               	movwf	atraso_ms@t^0,c
  1575  0010CC  EC65  F00A         	call	_atraso_ms	;wreg free
  1576  0010D0                     
  1577                           ;caixaeletronica.c: 38:         (*(volatile __near unsigned char*)0xF83) = 0b00010000;
  1578  0010D0  0E10               	movlw	16
  1579  0010D2  6E83               	movwf	131,c	;volatile
  1580  0010D4                     
  1581                           ;caixaeletronica.c: 39:         (*(volatile __near unsigned char*)0xF81) = 0b00001000;
  1582  0010D4  0E08               	movlw	8
  1583  0010D6  6E81               	movwf	129,c	;volatile
  1584  0010D8                     
  1585                           ;caixaeletronica.c: 40:         atraso_ms(atrasoLed);
  1586  0010D8  0E00               	movlw	0
  1587  0010DA  6E02               	movwf	(atraso_ms@t+1)^0,c
  1588  0010DC  0E96               	movlw	150
  1589  0010DE  6E01               	movwf	atraso_ms@t^0,c
  1590  0010E0  EC65  F00A         	call	_atraso_ms	;wreg free
  1591                           
  1592                           ;caixaeletronica.c: 41:         (*(volatile __near unsigned char*)0xF83) = 0b00100000;
  1593  0010E4  0E20               	movlw	32
  1594  0010E6  6E83               	movwf	131,c	;volatile
  1595                           
  1596                           ;caixaeletronica.c: 42:         (*(volatile __near unsigned char*)0xF81) = 0b00000100;
  1597  0010E8  0E04               	movlw	4
  1598  0010EA  6E81               	movwf	129,c	;volatile
  1599  0010EC                     
  1600                           ;caixaeletronica.c: 43:         atraso_ms(atrasoLed);
  1601  0010EC  0E00               	movlw	0
  1602  0010EE  6E02               	movwf	(atraso_ms@t+1)^0,c
  1603  0010F0  0E96               	movlw	150
  1604  0010F2  6E01               	movwf	atraso_ms@t^0,c
  1605  0010F4  EC65  F00A         	call	_atraso_ms	;wreg free
  1606  0010F8                     
  1607                           ;caixaeletronica.c: 44:         (*(volatile __near unsigned char*)0xF83) = 0b01000000;
  1608  0010F8  0E40               	movlw	64
  1609  0010FA  6E83               	movwf	131,c	;volatile
  1610  0010FC                     
  1611                           ;caixaeletronica.c: 45:         (*(volatile __near unsigned char*)0xF81) = 0b00000010;
  1612  0010FC  0E02               	movlw	2
  1613  0010FE  6E81               	movwf	129,c	;volatile
  1614  001100                     
  1615                           ;caixaeletronica.c: 46:         atraso_ms(atrasoLed);
  1616  001100  0E00               	movlw	0
  1617  001102  6E02               	movwf	(atraso_ms@t+1)^0,c
  1618  001104  0E96               	movlw	150
  1619  001106  6E01               	movwf	atraso_ms@t^0,c
  1620  001108  EC65  F00A         	call	_atraso_ms	;wreg free
  1621                           
  1622                           ;caixaeletronica.c: 47:         (*(volatile __near unsigned char*)0xF83) = 0b10000000;
  1623  00110C  0E80               	movlw	128
  1624  00110E  6E83               	movwf	131,c	;volatile
  1625                           
  1626                           ;caixaeletronica.c: 48:         (*(volatile __near unsigned char*)0xF81) = 0b00000001;
  1627  001110  0E01               	movlw	1
  1628  001112  6E81               	movwf	129,c	;volatile
  1629  001114                     
  1630                           ;caixaeletronica.c: 49:         atraso_ms(atrasoLed);
  1631  001114  0E00               	movlw	0
  1632  001116  6E02               	movwf	(atraso_ms@t+1)^0,c
  1633  001118  0E96               	movlw	150
  1634  00111A  6E01               	movwf	atraso_ms@t^0,c
  1635  00111C  EC65  F00A         	call	_atraso_ms	;wreg free
  1636  001120                     
  1637                           ;caixaeletronica.c: 50:         (*(volatile __near unsigned char*)0xF83) = 0b01000000;
  1638  001120  0E40               	movlw	64
  1639  001122  6E83               	movwf	131,c	;volatile
  1640  001124                     
  1641                           ;caixaeletronica.c: 51:         (*(volatile __near unsigned char*)0xF81) = 0b00000010;
  1642  001124  0E02               	movlw	2
  1643  001126  6E81               	movwf	129,c	;volatile
  1644  001128                     
  1645                           ;caixaeletronica.c: 52:         atraso_ms(atrasoLed);
  1646  001128  0E00               	movlw	0
  1647  00112A  6E02               	movwf	(atraso_ms@t+1)^0,c
  1648  00112C  0E96               	movlw	150
  1649  00112E  6E01               	movwf	atraso_ms@t^0,c
  1650  001130  EC65  F00A         	call	_atraso_ms	;wreg free
  1651                           
  1652                           ;caixaeletronica.c: 53:         (*(volatile __near unsigned char*)0xF83) = 0b00100000;
  1653  001134  0E20               	movlw	32
  1654  001136  6E83               	movwf	131,c	;volatile
  1655                           
  1656                           ;caixaeletronica.c: 54:         (*(volatile __near unsigned char*)0xF81) = 0b00000100;
  1657  001138  0E04               	movlw	4
  1658  00113A  6E81               	movwf	129,c	;volatile
  1659  00113C                     
  1660                           ;caixaeletronica.c: 55:         atraso_ms(atrasoLed);
  1661  00113C  0E00               	movlw	0
  1662  00113E  6E02               	movwf	(atraso_ms@t+1)^0,c
  1663  001140  0E96               	movlw	150
  1664  001142  6E01               	movwf	atraso_ms@t^0,c
  1665  001144  EC65  F00A         	call	_atraso_ms	;wreg free
  1666  001148                     
  1667                           ;caixaeletronica.c: 56:         (*(volatile __near unsigned char*)0xF83) = 0b00010000;
  1668  001148  0E10               	movlw	16
  1669  00114A  6E83               	movwf	131,c	;volatile
  1670  00114C                     
  1671                           ;caixaeletronica.c: 57:         (*(volatile __near unsigned char*)0xF81) = 0b00001000;
  1672  00114C  0E08               	movlw	8
  1673  00114E  6E81               	movwf	129,c	;volatile
  1674  001150                     
  1675                           ;caixaeletronica.c: 58:         atraso_ms(atrasoLed);
  1676  001150  0E00               	movlw	0
  1677  001152  6E02               	movwf	(atraso_ms@t+1)^0,c
  1678  001154  0E96               	movlw	150
  1679  001156  6E01               	movwf	atraso_ms@t^0,c
  1680  001158  EC65  F00A         	call	_atraso_ms	;wreg free
  1681                           
  1682                           ;caixaeletronica.c: 59:         (*(volatile __near unsigned char*)0xF83) = 0b00001000;
  1683  00115C  0E08               	movlw	8
  1684  00115E  6E83               	movwf	131,c	;volatile
  1685                           
  1686                           ;caixaeletronica.c: 60:         (*(volatile __near unsigned char*)0xF81) = 0b00010000;
  1687  001160  0E10               	movlw	16
  1688  001162  6E81               	movwf	129,c	;volatile
  1689  001164                     
  1690                           ;caixaeletronica.c: 61:         atraso_ms(atrasoLed);
  1691  001164  0E00               	movlw	0
  1692  001166  6E02               	movwf	(atraso_ms@t+1)^0,c
  1693  001168  0E96               	movlw	150
  1694  00116A  6E01               	movwf	atraso_ms@t^0,c
  1695  00116C  EC65  F00A         	call	_atraso_ms	;wreg free
  1696  001170                     
  1697                           ;caixaeletronica.c: 62:         (*(volatile __near unsigned char*)0xF83) = 0b00000100;
  1698  001170  0E04               	movlw	4
  1699  001172  6E83               	movwf	131,c	;volatile
  1700  001174                     
  1701                           ;caixaeletronica.c: 63:         (*(volatile __near unsigned char*)0xF81) = 0b00100000;
  1702  001174  0E20               	movlw	32
  1703  001176  6E81               	movwf	129,c	;volatile
  1704  001178                     
  1705                           ;caixaeletronica.c: 64:         atraso_ms(atrasoLed);
  1706  001178  0E00               	movlw	0
  1707  00117A  6E02               	movwf	(atraso_ms@t+1)^0,c
  1708  00117C  0E96               	movlw	150
  1709  00117E  6E01               	movwf	atraso_ms@t^0,c
  1710  001180  EC65  F00A         	call	_atraso_ms	;wreg free
  1711                           
  1712                           ;caixaeletronica.c: 65:         (*(volatile __near unsigned char*)0xF83) = 0b00000010;
  1713  001184  0E02               	movlw	2
  1714  001186  6E83               	movwf	131,c	;volatile
  1715                           
  1716                           ;caixaeletronica.c: 66:         (*(volatile __near unsigned char*)0xF81) = 0b01000000;
  1717  001188  0E40               	movlw	64
  1718  00118A  6E81               	movwf	129,c	;volatile
  1719  00118C                     
  1720                           ;caixaeletronica.c: 67:         atraso_ms(atrasoLed);
  1721  00118C  0E00               	movlw	0
  1722  00118E  6E02               	movwf	(atraso_ms@t+1)^0,c
  1723  001190  0E96               	movlw	150
  1724  001192  6E01               	movwf	atraso_ms@t^0,c
  1725  001194  EC65  F00A         	call	_atraso_ms	;wreg free
  1726  001198                     
  1727                           ;caixaeletronica.c: 68:         (*(volatile __near unsigned char*)0xF83) = 0b00000001;
  1728  001198  0E01               	movlw	1
  1729  00119A  6E83               	movwf	131,c	;volatile
  1730  00119C                     
  1731                           ;caixaeletronica.c: 69:         (*(volatile __near unsigned char*)0xF81) = 0b00000001;
  1732  00119C  0E01               	movlw	1
  1733  00119E  6E81               	movwf	129,c	;volatile
  1734  0011A0                     
  1735                           ;caixaeletronica.c: 71:     }
  1736  0011A0  4A07               	infsnz	piscaLed@l^0,f,c
  1737  0011A2  2A08               	incf	(piscaLed@l+1)^0,f,c
  1738  0011A4  BE08               	btfsc	(piscaLed@l+1)^0,7,c
  1739  0011A6  EFDD  F008         	goto	u1111
  1740  0011AA  5008               	movf	(piscaLed@l+1)^0,w,c
  1741  0011AC  E108               	bnz	u1110
  1742  0011AE  0407               	decf	piscaLed@l^0,w,c
  1743  0011B0  A0D8               	btfss	status,0,c
  1744  0011B2  EFDD  F008         	goto	u1111
  1745  0011B6  EFDF  F008         	goto	u1110
  1746  0011BA                     u1111:
  1747  0011BA  EF36  F008         	goto	l1741
  1748  0011BE                     u1110:
  1749  0011BE  0012               	return		;funcret
  1750  0011C0                     __end_of_piscaLed:
  1751                           	callstack 0
  1752                           
  1753 ;; *************** function _leconta *****************
  1754 ;; Defined at:
  1755 ;;		line 238 in file "caixaeletronica.c"
  1756 ;; Parameters:    Size  Location     Type
  1757 ;;  op              2   13[COMRAM] int 
  1758 ;; Auto vars:     Size  Location     Type
  1759 ;;  saldo           4   21[COMRAM] struct valor
  1760 ;;  tmp             1   20[COMRAM] unsigned char 
  1761 ;;  j               1   19[COMRAM] unsigned char 
  1762 ;;  i               1   18[COMRAM] unsigned char 
  1763 ;; Return value:  Size  Location     Type
  1764 ;;                  4   13[COMRAM] struct valor
  1765 ;; Registers used:
  1766 ;;		wreg, fsr2l, fsr2h, status,2, status,0, tblptrl, tblptrh, tblptru, cstack
  1767 ;; Tracked objects:
  1768 ;;		On entry : 0/0
  1769 ;;		On exit  : 0/0
  1770 ;;		Unchanged: 0/0
  1771 ;; Data sizes:     COMRAM   BANK0   BANK1   BANK2   BANK3   BANK4   BANK5
  1772 ;;      Params:         4       0       0       0       0       0       0
  1773 ;;      Locals:         7       0       0       0       0       0       0
  1774 ;;      Temps:          1       0       0       0       0       0       0
  1775 ;;      Totals:        12       0       0       0       0       0       0
  1776 ;;Total ram usage:       12 bytes
  1777 ;; Hardware stack levels used:    1
  1778 ;; Hardware stack levels required when called:    2
  1779 ;; This function calls:
  1780 ;;		_atraso_ms
  1781 ;;		_lcd_cmd
  1782 ;;		_lcd_dat
  1783 ;;		_tc_tecla
  1784 ;; This function is called by:
  1785 ;;		_main
  1786 ;; This function uses a non-reentrant model
  1787 ;;
  1788                           
  1789                           	psect	text4
  1790  0012CE                     __ptext4:
  1791                           	callstack 0
  1792  0012CE                     _leconta:
  1793                           	callstack 28
  1794  0012CE                     
  1795                           ;caixaeletronica.c: 239:     unsigned char i;;caixaeletronica.c: 240:     unsigned char 
      +                          j = 0;
  1796  0012CE  0E00               	movlw	0
  1797  0012D0  6E14               	movwf	leconta@j^0,c
  1798                           
  1799                           ;caixaeletronica.c: 241:     unsigned char tmp = 0x30;
  1800  0012D2  0E30               	movlw	48
  1801  0012D4  6E15               	movwf	leconta@tmp^0,c
  1802                           
  1803                           ;caixaeletronica.c: 242:     struct valor saldo;;caixaeletronica.c: 243:     while (tmp 
      +                          < 0x3C) {
  1804  0012D6  EFDA  F009         	goto	l2085
  1805  0012DA                     l2047:
  1806                           
  1807                           ;caixaeletronica.c: 245:         (*(volatile __near unsigned char*)0xF95) = 0x0F;
  1808  0012DA  0E0F               	movlw	15
  1809  0012DC  6E95               	movwf	149,c	;volatile
  1810  0012DE                     
  1811                           ;caixaeletronica.c: 246:         tmp = tc_tecla(0) + 0x30;
  1812  0012DE  0E00               	movlw	0
  1813  0012E0  6E08               	movwf	(tc_tecla@timeout+1)^0,c
  1814  0012E2  0E00               	movlw	0
  1815  0012E4  6E07               	movwf	tc_tecla@timeout^0,c
  1816  0012E6  EC45  F007         	call	_tc_tecla	;wreg free
  1817  0012EA  0F30               	addlw	48
  1818  0012EC  6E15               	movwf	leconta@tmp^0,c
  1819  0012EE                     
  1820                           ;caixaeletronica.c: 247:         (*(volatile __near unsigned char*)0xF95) = 0x00;
  1821  0012EE  0E00               	movlw	0
  1822  0012F0  6E95               	movwf	149,c	;volatile
  1823  0012F2                     
  1824                           ;caixaeletronica.c: 249:         if (op == 0) {
  1825  0012F2  500E               	movf	leconta@op^0,w,c
  1826  0012F4  100F               	iorwf	(leconta@op+1)^0,w,c
  1827  0012F6  A4D8               	btfss	status,2,c
  1828  0012F8  EF80  F009         	goto	u1571
  1829  0012FC  EF82  F009         	goto	u1570
  1830  001300                     u1571:
  1831  001300  EFA1  F009         	goto	l2059
  1832  001304                     u1570:
  1833  001304                     
  1834                           ;caixaeletronica.c: 250:             saldo.x[j] = tmp + j;
  1835  001304  0E16               	movlw	low leconta@saldo
  1836  001306  2414               	addwf	leconta@j^0,w,c
  1837  001308  6ED9               	movwf	fsr2l,c
  1838  00130A  6ADA               	clrf	fsr2h,c
  1839  00130C  0E00               	movlw	high leconta@saldo
  1840  00130E  22DA               	addwfc	fsr2h,f,c
  1841  001310  5015               	movf	leconta@tmp^0,w,c
  1842  001312  2414               	addwf	leconta@j^0,w,c
  1843  001314  6EDF               	movwf	indf2,c
  1844                           
  1845                           ;caixaeletronica.c: 251:             if (saldo.x[j] > 57) {
  1846  001316  0E16               	movlw	low leconta@saldo
  1847  001318  2414               	addwf	leconta@j^0,w,c
  1848  00131A  6ED9               	movwf	fsr2l,c
  1849  00131C  6ADA               	clrf	fsr2h,c
  1850  00131E  0E00               	movlw	high leconta@saldo
  1851  001320  22DA               	addwfc	fsr2h,f,c
  1852  001322  0E39               	movlw	57
  1853  001324  64DF               	cpfsgt	indf2,c
  1854  001326  EF97  F009         	goto	u1581
  1855  00132A  EF99  F009         	goto	u1580
  1856  00132E                     u1581:
  1857  00132E  EFA1  F009         	goto	l2059
  1858  001332                     u1580:
  1859  001332                     
  1860                           ;caixaeletronica.c: 252:                 saldo.x[j] = 53;
  1861  001332  0E16               	movlw	low leconta@saldo
  1862  001334  2414               	addwf	leconta@j^0,w,c
  1863  001336  6ED9               	movwf	fsr2l,c
  1864  001338  6ADA               	clrf	fsr2h,c
  1865  00133A  0E00               	movlw	high leconta@saldo
  1866  00133C  22DA               	addwfc	fsr2h,f,c
  1867  00133E  0E35               	movlw	53
  1868  001340  6EDF               	movwf	indf2,c
  1869  001342                     l2059:
  1870                           
  1871                           ;caixaeletronica.c: 255:         if (op == 1) {
  1872  001342  040E               	decf	leconta@op^0,w,c
  1873  001344  100F               	iorwf	(leconta@op+1)^0,w,c
  1874  001346  A4D8               	btfss	status,2,c
  1875  001348  EFA8  F009         	goto	u1591
  1876  00134C  EFAA  F009         	goto	u1590
  1877  001350                     u1591:
  1878  001350  EFB2  F009         	goto	l2063
  1879  001354                     u1590:
  1880  001354                     
  1881                           ;caixaeletronica.c: 256:             saldo.x[j] = tmp;
  1882  001354  0E16               	movlw	low leconta@saldo
  1883  001356  2414               	addwf	leconta@j^0,w,c
  1884  001358  6ED9               	movwf	fsr2l,c
  1885  00135A  6ADA               	clrf	fsr2h,c
  1886  00135C  0E00               	movlw	high leconta@saldo
  1887  00135E  22DA               	addwfc	fsr2h,f,c
  1888  001360  C015  FFDF         	movff	leconta@tmp,indf2
  1889  001364                     l2063:
  1890                           
  1891                           ;caixaeletronica.c: 259:         lcd_dat(tmp);
  1892  001364  5015               	movf	leconta@tmp^0,w,c
  1893  001366  EC04  F00B         	call	_lcd_dat
  1894  00136A                     
  1895                           ;caixaeletronica.c: 260:         if (tmp == 0x3A) {
  1896  00136A  0E3A               	movlw	58
  1897  00136C  1815               	xorwf	leconta@tmp^0,w,c
  1898  00136E  A4D8               	btfss	status,2,c
  1899  001370  EFBC  F009         	goto	u1601
  1900  001374  EFBE  F009         	goto	u1600
  1901  001378                     u1601:
  1902  001378  EFD9  F009         	goto	l2083
  1903  00137C                     u1600:
  1904  00137C                     
  1905                           ;caixaeletronica.c: 261:             lcd_cmd(0xC0);
  1906  00137C  0EC0               	movlw	192
  1907  00137E  EC19  F00B         	call	_lcd_cmd
  1908  001382                     
  1909                           ;caixaeletronica.c: 262:             for (i = 0; i < 16; i++) {
  1910  001382  0E00               	movlw	0
  1911  001384  6E13               	movwf	leconta@i^0,c
  1912  001386                     l2075:
  1913                           
  1914                           ;caixaeletronica.c: 263:                 lcd_dat(i % 2);
  1915  001386  5013               	movf	leconta@i^0,w,c
  1916  001388  0B01               	andlw	1
  1917  00138A  EC04  F00B         	call	_lcd_dat
  1918                           
  1919                           ;caixaeletronica.c: 264:                 atraso_ms(atrasoMin);
  1920  00138E  0E00               	movlw	0
  1921  001390  6E02               	movwf	(atraso_ms@t+1)^0,c
  1922  001392  0E14               	movlw	20
  1923  001394  6E01               	movwf	atraso_ms@t^0,c
  1924  001396  EC65  F00A         	call	_atraso_ms	;wreg free
  1925  00139A                     
  1926                           ;caixaeletronica.c: 265:             }
  1927  00139A  2A13               	incf	leconta@i^0,f,c
  1928  00139C  0E0F               	movlw	15
  1929  00139E  6413               	cpfsgt	leconta@i^0,c
  1930  0013A0  EFD4  F009         	goto	u1611
  1931  0013A4  EFD6  F009         	goto	u1610
  1932  0013A8                     u1611:
  1933  0013A8  EFC3  F009         	goto	l2075
  1934  0013AC                     u1610:
  1935  0013AC                     
  1936                           ;caixaeletronica.c: 266:             lcd_cmd(0xC0);
  1937  0013AC  0EC0               	movlw	192
  1938  0013AE  EC19  F00B         	call	_lcd_cmd
  1939  0013B2                     l2083:
  1940                           
  1941                           ;caixaeletronica.c: 268:         j++;
  1942  0013B2  2A14               	incf	leconta@j^0,f,c
  1943  0013B4                     l2085:
  1944                           
  1945                           ;caixaeletronica.c: 243:     while (tmp < 0x3C) {
  1946  0013B4  0E3B               	movlw	59
  1947  0013B6  6415               	cpfsgt	leconta@tmp^0,c
  1948  0013B8  EFE0  F009         	goto	u1621
  1949  0013BC  EFE2  F009         	goto	u1620
  1950  0013C0                     u1621:
  1951  0013C0  EF6D  F009         	goto	l2047
  1952  0013C4                     u1620:
  1953  0013C4                     
  1954                           ;caixaeletronica.c: 270:     return saldo;
  1955  0013C4  C016  F00E         	movff	leconta@saldo,?_leconta
  1956  0013C8  C017  F00F         	movff	leconta@saldo+1,?_leconta+1
  1957  0013CC  C018  F010         	movff	leconta@saldo+2,?_leconta+2
  1958  0013D0  C019  F011         	movff	leconta@saldo+3,?_leconta+3
  1959  0013D4  0012               	return		;funcret
  1960  0013D6                     __end_of_leconta:
  1961                           	callstack 0
  1962                           
  1963 ;; *************** function _tc_tecla *****************
  1964 ;; Defined at:
  1965 ;;		line 14 in file "teclado.c"
  1966 ;; Parameters:    Size  Location     Type
  1967 ;;  timeout         2    6[COMRAM] unsigned int 
  1968 ;; Auto vars:     Size  Location     Type
  1969 ;;  to              2    8[COMRAM] unsigned int 
  1970 ;;  i               1   12[COMRAM] unsigned char 
  1971 ;;  ret             1   11[COMRAM] unsigned char 
  1972 ;;  tmp             1   10[COMRAM] unsigned char 
  1973 ;; Return value:  Size  Location     Type
  1974 ;;                  1    wreg      unsigned char 
  1975 ;; Registers used:
  1976 ;;		wreg, status,2, status,0, tblptrl, tblptrh, tblptru, cstack
  1977 ;; Tracked objects:
  1978 ;;		On entry : 0/0
  1979 ;;		On exit  : 0/0
  1980 ;;		Unchanged: 0/0
  1981 ;; Data sizes:     COMRAM   BANK0   BANK1   BANK2   BANK3   BANK4   BANK5
  1982 ;;      Params:         2       0       0       0       0       0       0
  1983 ;;      Locals:         5       0       0       0       0       0       0
  1984 ;;      Temps:          0       0       0       0       0       0       0
  1985 ;;      Totals:         7       0       0       0       0       0       0
  1986 ;;Total ram usage:        7 bytes
  1987 ;; Hardware stack levels used:    1
  1988 ;; Hardware stack levels required when called:    1
  1989 ;; This function calls:
  1990 ;;		_atraso_ms
  1991 ;; This function is called by:
  1992 ;;		_leconta
  1993 ;; This function uses a non-reentrant model
  1994 ;;
  1995                           
  1996                           	psect	text5
  1997  000E8A                     __ptext5:
  1998                           	callstack 0
  1999  000E8A                     _tc_tecla:
  2000                           	callstack 28
  2001  000E8A                     
  2002                           ;teclado.c: 15:     unsigned int to = 0;
  2003  000E8A  0E00               	movlw	0
  2004  000E8C  6E0A               	movwf	(tc_tecla@to+1)^0,c
  2005  000E8E  0E00               	movlw	0
  2006  000E90  6E09               	movwf	tc_tecla@to^0,c
  2007                           
  2008                           ;teclado.c: 16:     unsigned char i;;teclado.c: 17:     unsigned char ret = 0;
  2009  000E92  0E00               	movlw	0
  2010  000E94  6E0C               	movwf	tc_tecla@ret^0,c
  2011  000E96                     
  2012                           ;teclado.c: 18:     unsigned char tmp = (*(volatile __near unsigned char*)0xF81);
  2013  000E96  CF81 F00B          	movff	3969,tc_tecla@tmp	;volatile
  2014                           
  2015                           ;teclado.c: 21:     while (((to < timeout) || (!timeout))&&(!ret)) {
  2016  000E9A  EFF6  F007         	goto	l1689
  2017  000E9E                     l1637:
  2018                           
  2019                           ;teclado.c: 22:         for (i = 0; i < 3; i++) {
  2020  000E9E  0E00               	movlw	0
  2021  000EA0  6E0D               	movwf	tc_tecla@i^0,c
  2022  000EA2                     l1643:
  2023                           
  2024                           ;teclado.c: 23:             (*(volatile __near unsigned char*)0xF81) |= ~linha[i];
  2025  000EA2  0E01               	movlw	low _linha
  2026  000EA4  240D               	addwf	tc_tecla@i^0,w,c
  2027  000EA6  6EF6               	movwf	tblptrl,c
  2028  000EA8  6AF7               	clrf	tblptrh,c
  2029  000EAA  0E06               	movlw	high _linha
  2030  000EAC  22F7               	addwfc	tblptrh,f,c
  2031  000EAE                     	if	0	;There are less than 3 active tblptr bytes
  2032  000EAE                     	endif
  2033  000EAE  0008               	tblrd		*
  2034  000EB0  50F5               	movf	tablat,w,c
  2035  000EB2  0AFF               	xorlw	255
  2036  000EB4  1281               	iorwf	129,f,c	;volatile
  2037  000EB6                     
  2038                           ;teclado.c: 24:             if (!(((*(volatile __near unsigned char*)0xF83)) & (1<<3))) 
      +                          {
  2039  000EB6  B683               	btfsc	131,3,c	;volatile
  2040  000EB8  EF60  F007         	goto	u931
  2041  000EBC  EF62  F007         	goto	u930
  2042  000EC0                     u931:
  2043  000EC0  EF7A  F007         	goto	l147
  2044  000EC4                     u930:
  2045  000EC4                     
  2046                           ;teclado.c: 25:                 atraso_ms(atraso);
  2047  000EC4  0E00               	movlw	0
  2048  000EC6  6E02               	movwf	(atraso_ms@t+1)^0,c
  2049  000EC8  0E0F               	movlw	15
  2050  000ECA  6E01               	movwf	atraso_ms@t^0,c
  2051  000ECC  EC65  F00A         	call	_atraso_ms	;wreg free
  2052  000ED0                     
  2053                           ;teclado.c: 26:                 if (!(((*(volatile __near unsigned char*)0xF83)) & (1<<3
      +                          ))) {
  2054  000ED0  B683               	btfsc	131,3,c	;volatile
  2055  000ED2  EF6D  F007         	goto	u941
  2056  000ED6  EF6F  F007         	goto	u940
  2057  000EDA                     u941:
  2058  000EDA  EF7A  F007         	goto	l147
  2059  000EDE                     u940:
  2060  000EDE                     l149:
  2061  000EDE  A683               	btfss	131,3,c	;volatile
  2062  000EE0  EF74  F007         	goto	u951
  2063  000EE4  EF76  F007         	goto	u950
  2064  000EE8                     u951:
  2065  000EE8  EF6F  F007         	goto	l149
  2066  000EEC                     u950:
  2067  000EEC                     
  2068                           ;teclado.c: 28:                     ret = 1 + i;
  2069  000EEC  280D               	incf	tc_tecla@i^0,w,c
  2070  000EEE  6E0C               	movwf	tc_tecla@ret^0,c
  2071                           
  2072                           ;teclado.c: 29:                     break;
  2073  000EF0  EFEC  F007         	goto	l1685
  2074  000EF4                     l147:
  2075                           
  2076                           ;teclado.c: 32:             if (!(((*(volatile __near unsigned char*)0xF83)) & (1<<2))) 
      +                          {
  2077  000EF4  B483               	btfsc	131,2,c	;volatile
  2078  000EF6  EF7F  F007         	goto	u961
  2079  000EFA  EF81  F007         	goto	u960
  2080  000EFE                     u961:
  2081  000EFE  EF9A  F007         	goto	l152
  2082  000F02                     u960:
  2083  000F02                     
  2084                           ;teclado.c: 33:                 atraso_ms(atraso);
  2085  000F02  0E00               	movlw	0
  2086  000F04  6E02               	movwf	(atraso_ms@t+1)^0,c
  2087  000F06  0E0F               	movlw	15
  2088  000F08  6E01               	movwf	atraso_ms@t^0,c
  2089  000F0A  EC65  F00A         	call	_atraso_ms	;wreg free
  2090  000F0E                     
  2091                           ;teclado.c: 34:                 if (!(((*(volatile __near unsigned char*)0xF83)) & (1<<2
      +                          ))) {
  2092  000F0E  B483               	btfsc	131,2,c	;volatile
  2093  000F10  EF8C  F007         	goto	u971
  2094  000F14  EF8E  F007         	goto	u970
  2095  000F18                     u971:
  2096  000F18  EF9A  F007         	goto	l152
  2097  000F1C                     u970:
  2098  000F1C                     l154:
  2099  000F1C  A483               	btfss	131,2,c	;volatile
  2100  000F1E  EF93  F007         	goto	u981
  2101  000F22  EF95  F007         	goto	u980
  2102  000F26                     u981:
  2103  000F26  EF8E  F007         	goto	l154
  2104  000F2A                     u980:
  2105  000F2A                     
  2106                           ;teclado.c: 36:                     ret = 4 + i;
  2107  000F2A  500D               	movf	tc_tecla@i^0,w,c
  2108  000F2C  0F04               	addlw	4
  2109  000F2E  6E0C               	movwf	tc_tecla@ret^0,c
  2110                           
  2111                           ;teclado.c: 37:                     break;
  2112  000F30  EFEC  F007         	goto	l1685
  2113  000F34                     l152:
  2114                           
  2115                           ;teclado.c: 40:             if (!(((*(volatile __near unsigned char*)0xF83)) & (1<<1))) 
      +                          {
  2116  000F34  B283               	btfsc	131,1,c	;volatile
  2117  000F36  EF9F  F007         	goto	u991
  2118  000F3A  EFA1  F007         	goto	u990
  2119  000F3E                     u991:
  2120  000F3E  EFBA  F007         	goto	l157
  2121  000F42                     u990:
  2122  000F42                     
  2123                           ;teclado.c: 41:                 atraso_ms(atraso);
  2124  000F42  0E00               	movlw	0
  2125  000F44  6E02               	movwf	(atraso_ms@t+1)^0,c
  2126  000F46  0E0F               	movlw	15
  2127  000F48  6E01               	movwf	atraso_ms@t^0,c
  2128  000F4A  EC65  F00A         	call	_atraso_ms	;wreg free
  2129  000F4E                     
  2130                           ;teclado.c: 42:                 if (!(((*(volatile __near unsigned char*)0xF83)) & (1<<1
      +                          ))) {
  2131  000F4E  B283               	btfsc	131,1,c	;volatile
  2132  000F50  EFAC  F007         	goto	u1001
  2133  000F54  EFAE  F007         	goto	u1000
  2134  000F58                     u1001:
  2135  000F58  EFBA  F007         	goto	l157
  2136  000F5C                     u1000:
  2137  000F5C                     l159:
  2138  000F5C  A283               	btfss	131,1,c	;volatile
  2139  000F5E  EFB3  F007         	goto	u1011
  2140  000F62  EFB5  F007         	goto	u1010
  2141  000F66                     u1011:
  2142  000F66  EFAE  F007         	goto	l159
  2143  000F6A                     u1010:
  2144  000F6A                     
  2145                           ;teclado.c: 44:                     ret = 7 + i;
  2146  000F6A  500D               	movf	tc_tecla@i^0,w,c
  2147  000F6C  0F07               	addlw	7
  2148  000F6E  6E0C               	movwf	tc_tecla@ret^0,c
  2149                           
  2150                           ;teclado.c: 45:                     break;
  2151  000F70  EFEC  F007         	goto	l1685
  2152  000F74                     l157:
  2153                           
  2154                           ;teclado.c: 48:             if (!(((*(volatile __near unsigned char*)0xF83)) & (1<<0))) 
      +                          {
  2155  000F74  B083               	btfsc	131,0,c	;volatile
  2156  000F76  EFBF  F007         	goto	u1021
  2157  000F7A  EFC1  F007         	goto	u1020
  2158  000F7E                     u1021:
  2159  000F7E  EFDA  F007         	goto	l1679
  2160  000F82                     u1020:
  2161  000F82                     
  2162                           ;teclado.c: 49:                 atraso_ms(atraso);
  2163  000F82  0E00               	movlw	0
  2164  000F84  6E02               	movwf	(atraso_ms@t+1)^0,c
  2165  000F86  0E0F               	movlw	15
  2166  000F88  6E01               	movwf	atraso_ms@t^0,c
  2167  000F8A  EC65  F00A         	call	_atraso_ms	;wreg free
  2168  000F8E                     
  2169                           ;teclado.c: 50:                 if (!(((*(volatile __near unsigned char*)0xF83)) & (1<<0
      +                          ))) {
  2170  000F8E  B083               	btfsc	131,0,c	;volatile
  2171  000F90  EFCC  F007         	goto	u1031
  2172  000F94  EFCE  F007         	goto	u1030
  2173  000F98                     u1031:
  2174  000F98  EFDA  F007         	goto	l1679
  2175  000F9C                     u1030:
  2176  000F9C                     l164:
  2177  000F9C  A083               	btfss	131,0,c	;volatile
  2178  000F9E  EFD3  F007         	goto	u1041
  2179  000FA2  EFD5  F007         	goto	u1040
  2180  000FA6                     u1041:
  2181  000FA6  EFCE  F007         	goto	l164
  2182  000FAA                     u1040:
  2183  000FAA                     
  2184                           ;teclado.c: 52:                     ret = 10 + i;
  2185  000FAA  500D               	movf	tc_tecla@i^0,w,c
  2186  000FAC  0F0A               	addlw	10
  2187  000FAE  6E0C               	movwf	tc_tecla@ret^0,c
  2188                           
  2189                           ;teclado.c: 53:                     break;
  2190  000FB0  EFEC  F007         	goto	l1685
  2191  000FB4                     l1679:
  2192                           
  2193                           ;teclado.c: 56:             (*(volatile __near unsigned char*)0xF81) &= linha[i];
  2194  000FB4  0E01               	movlw	low _linha
  2195  000FB6  240D               	addwf	tc_tecla@i^0,w,c
  2196  000FB8  6EF6               	movwf	tblptrl,c
  2197  000FBA  6AF7               	clrf	tblptrh,c
  2198  000FBC  0E06               	movlw	high _linha
  2199  000FBE  22F7               	addwfc	tblptrh,f,c
  2200  000FC0                     	if	0	;There are less than 3 active tblptr bytes
  2201  000FC0                     	endif
  2202  000FC0  0008               	tblrd		*
  2203  000FC2  50F5               	movf	tablat,w,c
  2204  000FC4  1681               	andwf	129,f,c	;volatile
  2205  000FC6                     
  2206                           ;teclado.c: 57:         };
  2207  000FC6  2A0D               	incf	tc_tecla@i^0,f,c
  2208  000FC8  0E02               	movlw	2
  2209  000FCA  640D               	cpfsgt	tc_tecla@i^0,c
  2210  000FCC  EFEA  F007         	goto	u1051
  2211  000FD0  EFEC  F007         	goto	u1050
  2212  000FD4                     u1051:
  2213  000FD4  EF51  F007         	goto	l1643
  2214  000FD8                     u1050:
  2215  000FD8                     l1685:
  2216                           
  2217                           ;teclado.c: 58:         atraso_ms(atraso_min);
  2218  000FD8  0E00               	movlw	0
  2219  000FDA  6E02               	movwf	(atraso_ms@t+1)^0,c
  2220  000FDC  0E05               	movlw	5
  2221  000FDE  6E01               	movwf	atraso_ms@t^0,c
  2222  000FE0  EC65  F00A         	call	_atraso_ms	;wreg free
  2223  000FE4                     
  2224                           ;teclado.c: 59:         to += 5;
  2225  000FE4  0E05               	movlw	5
  2226  000FE6  2609               	addwf	tc_tecla@to^0,f,c
  2227  000FE8  0E00               	movlw	0
  2228  000FEA  220A               	addwfc	(tc_tecla@to+1)^0,f,c
  2229  000FEC                     l1689:
  2230                           
  2231                           ;teclado.c: 21:     while (((to < timeout) || (!timeout))&&(!ret)) {
  2232  000FEC  5007               	movf	tc_tecla@timeout^0,w,c
  2233  000FEE  5C09               	subwf	tc_tecla@to^0,w,c
  2234  000FF0  5008               	movf	(tc_tecla@timeout+1)^0,w,c
  2235  000FF2  580A               	subwfb	(tc_tecla@to+1)^0,w,c
  2236  000FF4  A0D8               	btfss	status,0,c
  2237  000FF6  EFFF  F007         	goto	u1061
  2238  000FFA  EF01  F008         	goto	u1060
  2239  000FFE                     u1061:
  2240  000FFE  EF0A  F008         	goto	l1693
  2241  001002                     u1060:
  2242  001002  5007               	movf	tc_tecla@timeout^0,w,c
  2243  001004  1008               	iorwf	(tc_tecla@timeout+1)^0,w,c
  2244  001006  A4D8               	btfss	status,2,c
  2245  001008  EF08  F008         	goto	u1071
  2246  00100C  EF0A  F008         	goto	u1070
  2247  001010                     u1071:
  2248  001010  EF12  F008         	goto	l1695
  2249  001014                     u1070:
  2250  001014                     l1693:
  2251  001014  500C               	movf	tc_tecla@ret^0,w,c
  2252  001016  B4D8               	btfsc	status,2,c
  2253  001018  EF10  F008         	goto	u1081
  2254  00101C  EF12  F008         	goto	u1080
  2255  001020                     u1081:
  2256  001020  EF4F  F007         	goto	l1637
  2257  001024                     u1080:
  2258  001024                     l1695:
  2259                           
  2260                           ;teclado.c: 62:     if (!ret)ret = 255;
  2261  001024  500C               	movf	tc_tecla@ret^0,w,c
  2262  001026  A4D8               	btfss	status,2,c
  2263  001028  EF18  F008         	goto	u1091
  2264  00102C  EF1A  F008         	goto	u1090
  2265  001030                     u1091:
  2266  001030  EF1B  F008         	goto	l1699
  2267  001034                     u1090:
  2268  001034  680C               	setf	tc_tecla@ret^0,c
  2269  001036                     l1699:
  2270                           
  2271                           ;teclado.c: 63:     if (ret == 11)ret = 0;
  2272  001036  0E0B               	movlw	11
  2273  001038  180C               	xorwf	tc_tecla@ret^0,w,c
  2274  00103A  A4D8               	btfss	status,2,c
  2275  00103C  EF22  F008         	goto	u1101
  2276  001040  EF24  F008         	goto	u1100
  2277  001044                     u1101:
  2278  001044  EF26  F008         	goto	l1703
  2279  001048                     u1100:
  2280  001048  0E00               	movlw	0
  2281  00104A  6E0C               	movwf	tc_tecla@ret^0,c
  2282  00104C                     l1703:
  2283                           
  2284                           ;teclado.c: 64:     (*(volatile __near unsigned char*)0xF81) = tmp;
  2285  00104C  C00B  FF81         	movff	tc_tecla@tmp,3969	;volatile
  2286                           
  2287                           ;teclado.c: 65:     return ret;
  2288  001050  500C               	movf	tc_tecla@ret^0,w,c
  2289  001052  0012               	return		;funcret
  2290  001054                     __end_of_tc_tecla:
  2291                           	callstack 0
  2292                           
  2293 ;; *************** function _lcd_str *****************
  2294 ;; Defined at:
  2295 ;;		line 47 in file "lcd.c"
  2296 ;; Parameters:    Size  Location     Type
  2297 ;;  str             2    7[COMRAM] PTR const unsigned char 
  2298 ;;		 -> STR_11(9), STR_10(25), STR_9(9), STR_8(25), 
  2299 ;;		 -> STR_7(13), STR_6(25), STR_5(10), STR_4(11), 
  2300 ;;		 -> STR_3(8), STR_2(36), STR_1(35), 
  2301 ;; Auto vars:     Size  Location     Type
  2302 ;;  i               1   11[COMRAM] unsigned char 
  2303 ;; Return value:  Size  Location     Type
  2304 ;;                  1    wreg      void 
  2305 ;; Registers used:
  2306 ;;		wreg, status,2, status,0, tblptrl, tblptrh, tblptru, cstack
  2307 ;; Tracked objects:
  2308 ;;		On entry : 0/0
  2309 ;;		On exit  : 0/0
  2310 ;;		Unchanged: 0/0
  2311 ;; Data sizes:     COMRAM   BANK0   BANK1   BANK2   BANK3   BANK4   BANK5
  2312 ;;      Params:         2       0       0       0       0       0       0
  2313 ;;      Locals:         1       0       0       0       0       0       0
  2314 ;;      Temps:          2       0       0       0       0       0       0
  2315 ;;      Totals:         5       0       0       0       0       0       0
  2316 ;;Total ram usage:        5 bytes
  2317 ;; Hardware stack levels used:    1
  2318 ;; Hardware stack levels required when called:    2
  2319 ;; This function calls:
  2320 ;;		_lcd_dat
  2321 ;; This function is called by:
  2322 ;;		_main
  2323 ;; This function uses a non-reentrant model
  2324 ;;
  2325                           
  2326                           	psect	text6
  2327  00158A                     __ptext6:
  2328                           	callstack 0
  2329  00158A                     _lcd_str:
  2330                           	callstack 28
  2331  00158A                     
  2332                           ;lcd.c: 48:     unsigned char i = 0;
  2333  00158A  0E00               	movlw	0
  2334  00158C  6E0C               	movwf	lcd_str@i^0,c
  2335                           
  2336                           ;lcd.c: 50:     while (str[i] != 0) {
  2337  00158E  EFD8  F00A         	goto	l2133
  2338  001592                     l2129:
  2339                           
  2340                           ;lcd.c: 51:         lcd_dat(str[i]);
  2341  001592  500C               	movf	lcd_str@i^0,w,c
  2342  001594  2408               	addwf	lcd_str@str^0,w,c
  2343  001596  6E0A               	movwf	??_lcd_str^0,c
  2344  001598  0E00               	movlw	0
  2345  00159A  2009               	addwfc	(lcd_str@str+1)^0,w,c
  2346  00159C  6E0B               	movwf	(??_lcd_str+1)^0,c
  2347  00159E  C00A  FFF6         	movff	??_lcd_str,tblptrl
  2348  0015A2  C00B  FFF7         	movff	??_lcd_str+1,tblptrh
  2349  0015A6                     	if	0	;tblptru may be non-zero
  2350  0015A6                     	endif
  2351  0015A6                     	if	0	;tblptru may be non-zero
  2352  0015A6                     	endif
  2353  0015A6  0008               	tblrd		*
  2354  0015A8  50F5               	movf	tablat,w,c
  2355  0015AA  EC04  F00B         	call	_lcd_dat
  2356  0015AE                     
  2357                           ;lcd.c: 52:         i++;
  2358  0015AE  2A0C               	incf	lcd_str@i^0,f,c
  2359  0015B0                     l2133:
  2360                           
  2361                           ;lcd.c: 50:     while (str[i] != 0) {
  2362  0015B0  500C               	movf	lcd_str@i^0,w,c
  2363  0015B2  2408               	addwf	lcd_str@str^0,w,c
  2364  0015B4  6E0A               	movwf	??_lcd_str^0,c
  2365  0015B6  0E00               	movlw	0
  2366  0015B8  2009               	addwfc	(lcd_str@str+1)^0,w,c
  2367  0015BA  6E0B               	movwf	(??_lcd_str+1)^0,c
  2368  0015BC  C00A  FFF6         	movff	??_lcd_str,tblptrl
  2369  0015C0  C00B  FFF7         	movff	??_lcd_str+1,tblptrh
  2370  0015C4                     	if	0	;tblptru may be non-zero
  2371  0015C4                     	endif
  2372  0015C4                     	if	0	;tblptru may be non-zero
  2373  0015C4                     	endif
  2374  0015C4  0008               	tblrd		*
  2375  0015C6  50F5               	movf	tablat,w,c
  2376  0015C8  0900               	iorlw	0
  2377  0015CA  A4D8               	btfss	status,2,c
  2378  0015CC  EFEA  F00A         	goto	u1671
  2379  0015D0  EFEC  F00A         	goto	u1670
  2380  0015D4                     u1671:
  2381  0015D4  EFC9  F00A         	goto	l2129
  2382  0015D8                     u1670:
  2383  0015D8  0012               	return		;funcret
  2384  0015DA                     __end_of_lcd_str:
  2385                           	callstack 0
  2386                           
  2387 ;; *************** function _lcd_dat *****************
  2388 ;; Defined at:
  2389 ;;		line 19 in file "lcd.c"
  2390 ;; Parameters:    Size  Location     Type
  2391 ;;  val             1    wreg     unsigned char 
  2392 ;; Auto vars:     Size  Location     Type
  2393 ;;  val             1    6[COMRAM] unsigned char 
  2394 ;; Return value:  Size  Location     Type
  2395 ;;                  1    wreg      void 
  2396 ;; Registers used:
  2397 ;;		wreg, status,2, status,0, cstack
  2398 ;; Tracked objects:
  2399 ;;		On entry : 0/0
  2400 ;;		On exit  : 0/0
  2401 ;;		Unchanged: 0/0
  2402 ;; Data sizes:     COMRAM   BANK0   BANK1   BANK2   BANK3   BANK4   BANK5
  2403 ;;      Params:         0       0       0       0       0       0       0
  2404 ;;      Locals:         1       0       0       0       0       0       0
  2405 ;;      Temps:          0       0       0       0       0       0       0
  2406 ;;      Totals:         1       0       0       0       0       0       0
  2407 ;;Total ram usage:        1 bytes
  2408 ;; Hardware stack levels used:    1
  2409 ;; Hardware stack levels required when called:    1
  2410 ;; This function calls:
  2411 ;;		_atraso_ms
  2412 ;;		_lcd_wr
  2413 ;; This function is called by:
  2414 ;;		_leconta
  2415 ;;		_lcd_str
  2416 ;;		_main
  2417 ;; This function uses a non-reentrant model
  2418 ;;
  2419                           
  2420                           	psect	text7
  2421  001608                     __ptext7:
  2422                           	callstack 0
  2423  001608                     _lcd_dat:
  2424                           	callstack 28
  2425                           
  2426                           ;incstack = 0
  2427                           ;lcd_dat@val stored from wreg
  2428  001608  6E07               	movwf	lcd_dat@val^0,c
  2429  00160A                     
  2430                           ;lcd.c: 20:     (((*(volatile __near unsigned char*)0xF84)) |= (1<<1));
  2431  00160A  8284               	bsf	132,1,c	;volatile
  2432  00160C                     
  2433                           ;lcd.c: 21:     lcd_wr(val);
  2434  00160C  5007               	movf	lcd_dat@val^0,w,c
  2435  00160E  EC35  F00B         	call	_lcd_wr
  2436  001612                     
  2437                           ;lcd.c: 22:     (((*(volatile __near unsigned char*)0xF84)) |= (1<<2));
  2438  001612  8484               	bsf	132,2,c	;volatile
  2439  001614                     
  2440                           ;lcd.c: 23:     atraso_ms(3);
  2441  001614  0E00               	movlw	0
  2442  001616  6E02               	movwf	(atraso_ms@t+1)^0,c
  2443  001618  0E03               	movlw	3
  2444  00161A  6E01               	movwf	atraso_ms@t^0,c
  2445  00161C  EC65  F00A         	call	_atraso_ms	;wreg free
  2446  001620                     
  2447                           ;lcd.c: 24:     (((*(volatile __near unsigned char*)0xF84)) &= ~(1<<1));
  2448  001620  9284               	bcf	132,1,c	;volatile
  2449  001622                     
  2450                           ;lcd.c: 25:     atraso_ms(3);
  2451  001622  0E00               	movlw	0
  2452  001624  6E02               	movwf	(atraso_ms@t+1)^0,c
  2453  001626  0E03               	movlw	3
  2454  001628  6E01               	movwf	atraso_ms@t^0,c
  2455  00162A  EC65  F00A         	call	_atraso_ms	;wreg free
  2456  00162E                     
  2457                           ;lcd.c: 26:     (((*(volatile __near unsigned char*)0xF84)) |= (1<<1));
  2458  00162E  8284               	bsf	132,1,c	;volatile
  2459  001630  0012               	return		;funcret
  2460  001632                     __end_of_lcd_dat:
  2461                           	callstack 0
  2462                           
  2463 ;; *************** function _lcd_init *****************
  2464 ;; Defined at:
  2465 ;;		line 29 in file "lcd.c"
  2466 ;; Parameters:    Size  Location     Type
  2467 ;;		None
  2468 ;; Auto vars:     Size  Location     Type
  2469 ;;		None
  2470 ;; Return value:  Size  Location     Type
  2471 ;;                  1    wreg      void 
  2472 ;; Registers used:
  2473 ;;		wreg, status,2, status,0, cstack
  2474 ;; Tracked objects:
  2475 ;;		On entry : 0/0
  2476 ;;		On exit  : 0/0
  2477 ;;		Unchanged: 0/0
  2478 ;; Data sizes:     COMRAM   BANK0   BANK1   BANK2   BANK3   BANK4   BANK5
  2479 ;;      Params:         0       0       0       0       0       0       0
  2480 ;;      Locals:         0       0       0       0       0       0       0
  2481 ;;      Temps:          0       0       0       0       0       0       0
  2482 ;;      Totals:         0       0       0       0       0       0       0
  2483 ;;Total ram usage:        0 bytes
  2484 ;; Hardware stack levels used:    1
  2485 ;; Hardware stack levels required when called:    2
  2486 ;; This function calls:
  2487 ;;		_atraso_ms
  2488 ;;		_lcd_cmd
  2489 ;; This function is called by:
  2490 ;;		_main
  2491 ;; This function uses a non-reentrant model
  2492 ;;
  2493                           
  2494                           	psect	text8
  2495  00152E                     __ptext8:
  2496                           	callstack 0
  2497  00152E                     _lcd_init:
  2498                           	callstack 28
  2499  00152E                     
  2500                           ;lcd.c: 30:     (((*(volatile __near unsigned char*)0xF84)) &= ~(1<<1));
  2501  00152E  9284               	bcf	132,1,c	;volatile
  2502                           
  2503                           ;lcd.c: 31:     (((*(volatile __near unsigned char*)0xF84)) &= ~(1<<2));
  2504  001530  9484               	bcf	132,2,c	;volatile
  2505  001532                     
  2506                           ;lcd.c: 32:     atraso_ms(20);
  2507  001532  0E00               	movlw	0
  2508  001534  6E02               	movwf	(atraso_ms@t+1)^0,c
  2509  001536  0E14               	movlw	20
  2510  001538  6E01               	movwf	atraso_ms@t^0,c
  2511  00153A  EC65  F00A         	call	_atraso_ms	;wreg free
  2512  00153E                     
  2513                           ;lcd.c: 33:     (((*(volatile __near unsigned char*)0xF84)) |= (1<<1));
  2514  00153E  8284               	bsf	132,1,c	;volatile
  2515                           
  2516                           ;lcd.c: 35:     lcd_cmd(0x38);
  2517  001540  0E38               	movlw	56
  2518  001542  EC19  F00B         	call	_lcd_cmd
  2519                           
  2520                           ;lcd.c: 36:     atraso_ms(5);
  2521  001546  0E00               	movlw	0
  2522  001548  6E02               	movwf	(atraso_ms@t+1)^0,c
  2523  00154A  0E05               	movlw	5
  2524  00154C  6E01               	movwf	atraso_ms@t^0,c
  2525  00154E  EC65  F00A         	call	_atraso_ms	;wreg free
  2526                           
  2527                           ;lcd.c: 37:     lcd_cmd(0x38);
  2528  001552  0E38               	movlw	56
  2529  001554  EC19  F00B         	call	_lcd_cmd
  2530                           
  2531                           ;lcd.c: 38:     atraso_ms(1);
  2532  001558  0E00               	movlw	0
  2533  00155A  6E02               	movwf	(atraso_ms@t+1)^0,c
  2534  00155C  0E01               	movlw	1
  2535  00155E  6E01               	movwf	atraso_ms@t^0,c
  2536  001560  EC65  F00A         	call	_atraso_ms	;wreg free
  2537                           
  2538                           ;lcd.c: 39:     lcd_cmd(0x38);
  2539  001564  0E38               	movlw	56
  2540  001566  EC19  F00B         	call	_lcd_cmd
  2541                           
  2542                           ;lcd.c: 40:     lcd_cmd(0x08);
  2543  00156A  0E08               	movlw	8
  2544  00156C  EC19  F00B         	call	_lcd_cmd
  2545                           
  2546                           ;lcd.c: 41:     lcd_cmd(0x0F);
  2547  001570  0E0F               	movlw	15
  2548  001572  EC19  F00B         	call	_lcd_cmd
  2549                           
  2550                           ;lcd.c: 42:     lcd_cmd(0x01);
  2551  001576  0E01               	movlw	1
  2552  001578  EC19  F00B         	call	_lcd_cmd
  2553                           
  2554                           ;lcd.c: 43:     lcd_cmd(0x38);
  2555  00157C  0E38               	movlw	56
  2556  00157E  EC19  F00B         	call	_lcd_cmd
  2557                           
  2558                           ;lcd.c: 44:     lcd_cmd(0x80);
  2559  001582  0E80               	movlw	128
  2560  001584  EC19  F00B         	call	_lcd_cmd
  2561  001588  0012               	return		;funcret
  2562  00158A                     __end_of_lcd_init:
  2563                           	callstack 0
  2564                           
  2565 ;; *************** function _lcd_cmd *****************
  2566 ;; Defined at:
  2567 ;;		line 9 in file "lcd.c"
  2568 ;; Parameters:    Size  Location     Type
  2569 ;;  val             1    wreg     unsigned char 
  2570 ;; Auto vars:     Size  Location     Type
  2571 ;;  val             1    6[COMRAM] unsigned char 
  2572 ;; Return value:  Size  Location     Type
  2573 ;;                  1    wreg      void 
  2574 ;; Registers used:
  2575 ;;		wreg, status,2, status,0, cstack
  2576 ;; Tracked objects:
  2577 ;;		On entry : 0/0
  2578 ;;		On exit  : 0/0
  2579 ;;		Unchanged: 0/0
  2580 ;; Data sizes:     COMRAM   BANK0   BANK1   BANK2   BANK3   BANK4   BANK5
  2581 ;;      Params:         0       0       0       0       0       0       0
  2582 ;;      Locals:         1       0       0       0       0       0       0
  2583 ;;      Temps:          0       0       0       0       0       0       0
  2584 ;;      Totals:         1       0       0       0       0       0       0
  2585 ;;Total ram usage:        1 bytes
  2586 ;; Hardware stack levels used:    1
  2587 ;; Hardware stack levels required when called:    1
  2588 ;; This function calls:
  2589 ;;		_atraso_ms
  2590 ;;		_lcd_wr
  2591 ;; This function is called by:
  2592 ;;		_leconta
  2593 ;;		_lcd_init
  2594 ;;		_main
  2595 ;; This function uses a non-reentrant model
  2596 ;;
  2597                           
  2598                           	psect	text9
  2599  001632                     __ptext9:
  2600                           	callstack 0
  2601  001632                     _lcd_cmd:
  2602                           	callstack 28
  2603                           
  2604                           ;incstack = 0
  2605                           ;lcd_cmd@val stored from wreg
  2606  001632  6E07               	movwf	lcd_cmd@val^0,c
  2607  001634                     
  2608                           ;lcd.c: 10:     (((*(volatile __near unsigned char*)0xF84)) |= (1<<1));
  2609  001634  8284               	bsf	132,1,c	;volatile
  2610  001636                     
  2611                           ;lcd.c: 11:     lcd_wr(val);
  2612  001636  5007               	movf	lcd_cmd@val^0,w,c
  2613  001638  EC35  F00B         	call	_lcd_wr
  2614  00163C                     
  2615                           ;lcd.c: 12:     (((*(volatile __near unsigned char*)0xF84)) &= ~(1<<2));
  2616  00163C  9484               	bcf	132,2,c	;volatile
  2617  00163E                     
  2618                           ;lcd.c: 13:     atraso_ms(3);
  2619  00163E  0E00               	movlw	0
  2620  001640  6E02               	movwf	(atraso_ms@t+1)^0,c
  2621  001642  0E03               	movlw	3
  2622  001644  6E01               	movwf	atraso_ms@t^0,c
  2623  001646  EC65  F00A         	call	_atraso_ms	;wreg free
  2624  00164A                     
  2625                           ;lcd.c: 14:     (((*(volatile __near unsigned char*)0xF84)) &= ~(1<<1));
  2626  00164A  9284               	bcf	132,1,c	;volatile
  2627  00164C                     
  2628                           ;lcd.c: 15:     atraso_ms(3);
  2629  00164C  0E00               	movlw	0
  2630  00164E  6E02               	movwf	(atraso_ms@t+1)^0,c
  2631  001650  0E03               	movlw	3
  2632  001652  6E01               	movwf	atraso_ms@t^0,c
  2633  001654  EC65  F00A         	call	_atraso_ms	;wreg free
  2634  001658                     
  2635                           ;lcd.c: 16:     (((*(volatile __near unsigned char*)0xF84)) |= (1<<1));
  2636  001658  8284               	bsf	132,1,c	;volatile
  2637  00165A  0012               	return		;funcret
  2638  00165C                     __end_of_lcd_cmd:
  2639                           	callstack 0
  2640                           
  2641 ;; *************** function _lcd_wr *****************
  2642 ;; Defined at:
  2643 ;;		line 5 in file "lcd.c"
  2644 ;; Parameters:    Size  Location     Type
  2645 ;;  val             1    wreg     unsigned char 
  2646 ;; Auto vars:     Size  Location     Type
  2647 ;;  val             1    0[COMRAM] unsigned char 
  2648 ;; Return value:  Size  Location     Type
  2649 ;;                  1    wreg      void 
  2650 ;; Registers used:
  2651 ;;		wreg
  2652 ;; Tracked objects:
  2653 ;;		On entry : 0/0
  2654 ;;		On exit  : 0/0
  2655 ;;		Unchanged: 0/0
  2656 ;; Data sizes:     COMRAM   BANK0   BANK1   BANK2   BANK3   BANK4   BANK5
  2657 ;;      Params:         0       0       0       0       0       0       0
  2658 ;;      Locals:         1       0       0       0       0       0       0
  2659 ;;      Temps:          0       0       0       0       0       0       0
  2660 ;;      Totals:         1       0       0       0       0       0       0
  2661 ;;Total ram usage:        1 bytes
  2662 ;; Hardware stack levels used:    1
  2663 ;; This function calls:
  2664 ;;		Nothing
  2665 ;; This function is called by:
  2666 ;;		_lcd_cmd
  2667 ;;		_lcd_dat
  2668 ;; This function uses a non-reentrant model
  2669 ;;
  2670                           
  2671                           	psect	text10
  2672  00166A                     __ptext10:
  2673                           	callstack 0
  2674  00166A                     _lcd_wr:
  2675                           	callstack 28
  2676                           
  2677                           ;incstack = 0
  2678                           ;lcd_wr@val stored from wreg
  2679  00166A  6E01               	movwf	lcd_wr@val^0,c
  2680  00166C                     
  2681                           ;lcd.c: 6:     (*(volatile __near unsigned char*)0xF83) = val;
  2682  00166C  C001  FF83         	movff	lcd_wr@val,3971	;volatile
  2683  001670  0012               	return		;funcret
  2684  001672                     __end_of_lcd_wr:
  2685                           	callstack 0
  2686                           
  2687 ;; *************** function _atraso_ms *****************
  2688 ;; Defined at:
  2689 ;;		line 3 in file "delay.c"
  2690 ;; Parameters:    Size  Location     Type
  2691 ;;  t               2    0[COMRAM] int 
  2692 ;; Auto vars:     Size  Location     Type
  2693 ;;  i               2    2[COMRAM] volatile unsigned int 
  2694 ;;  k               1    5[COMRAM] volatile unsigned char 
  2695 ;;  j               1    4[COMRAM] volatile unsigned char 
  2696 ;; Return value:  Size  Location     Type
  2697 ;;                  1    wreg      void 
  2698 ;; Registers used:
  2699 ;;		wreg, status,2, status,0
  2700 ;; Tracked objects:
  2701 ;;		On entry : 0/0
  2702 ;;		On exit  : 0/0
  2703 ;;		Unchanged: 0/0
  2704 ;; Data sizes:     COMRAM   BANK0   BANK1   BANK2   BANK3   BANK4   BANK5
  2705 ;;      Params:         2       0       0       0       0       0       0
  2706 ;;      Locals:         4       0       0       0       0       0       0
  2707 ;;      Temps:          0       0       0       0       0       0       0
  2708 ;;      Totals:         6       0       0       0       0       0       0
  2709 ;;Total ram usage:        6 bytes
  2710 ;; Hardware stack levels used:    1
  2711 ;; This function calls:
  2712 ;;		Nothing
  2713 ;; This function is called by:
  2714 ;;		_piscaLed
  2715 ;;		_leconta
  2716 ;;		_lcd_cmd
  2717 ;;		_lcd_dat
  2718 ;;		_lcd_init
  2719 ;;		_tc_tecla
  2720 ;; This function uses a non-reentrant model
  2721 ;;
  2722                           
  2723                           	psect	text11
  2724  0014CA                     __ptext11:
  2725                           	callstack 0
  2726  0014CA                     _atraso_ms:
  2727                           	callstack 29
  2728  0014CA                     
  2729                           ;delay.c: 4:     volatile unsigned char j, k;;delay.c: 5:     volatile unsigned int i;;d
      +                          elay.c: 7:     for (i = 0; i < (t); i++) {
  2730  0014CA  0E00               	movlw	0
  2731  0014CC  6E04               	movwf	(atraso_ms@i+1)^0,c	;volatile
  2732  0014CE  0E00               	movlw	0
  2733  0014D0  6E03               	movwf	atraso_ms@i^0,c	;volatile
  2734  0014D2  EF8B  F00A         	goto	l1631
  2735  0014D6                     l1609:
  2736                           
  2737                           ;delay.c: 8:         for (j = 0; j < 41; j++) {
  2738  0014D6  0E00               	movlw	0
  2739  0014D8  6E05               	movwf	atraso_ms@j^0,c	;volatile
  2740  0014DA                     l1611:
  2741  0014DA  0E28               	movlw	40
  2742  0014DC  6405               	cpfsgt	atraso_ms@j^0,c	;volatile
  2743  0014DE  EF73  F00A         	goto	u901
  2744  0014E2  EF75  F00A         	goto	u900
  2745  0014E6                     u901:
  2746  0014E6  EF77  F00A         	goto	l1615
  2747  0014EA                     u900:
  2748  0014EA  EF89  F00A         	goto	l1629
  2749  0014EE                     l1615:
  2750                           
  2751                           ;delay.c: 9:             for (k = 0; k < 3; k++);
  2752  0014EE  0E00               	movlw	0
  2753  0014F0  6E06               	movwf	atraso_ms@k^0,c	;volatile
  2754  0014F2                     l1617:
  2755  0014F2  0E02               	movlw	2
  2756  0014F4  6406               	cpfsgt	atraso_ms@k^0,c	;volatile
  2757  0014F6  EF7F  F00A         	goto	u911
  2758  0014FA  EF81  F00A         	goto	u910
  2759  0014FE                     u911:
  2760  0014FE  EF83  F00A         	goto	l1621
  2761  001502                     u910:
  2762  001502  EF86  F00A         	goto	l1625
  2763  001506                     l1621:
  2764  001506  2A06               	incf	atraso_ms@k^0,f,c	;volatile
  2765  001508  EF79  F00A         	goto	l1617
  2766  00150C                     l1625:
  2767                           
  2768                           ;delay.c: 10:         }
  2769  00150C  2A05               	incf	atraso_ms@j^0,f,c	;volatile
  2770  00150E  EF6D  F00A         	goto	l1611
  2771  001512                     l1629:
  2772                           
  2773                           ;delay.c: 11:     }
  2774  001512  4A03               	infsnz	atraso_ms@i^0,f,c	;volatile
  2775  001514  2A04               	incf	(atraso_ms@i+1)^0,f,c	;volatile
  2776  001516                     l1631:
  2777  001516  5001               	movf	atraso_ms@t^0,w,c
  2778  001518  5C03               	subwf	atraso_ms@i^0,w,c	;volatile
  2779  00151A  5002               	movf	(atraso_ms@t+1)^0,w,c
  2780  00151C  5804               	subwfb	(atraso_ms@i+1)^0,w,c	;volatile
  2781  00151E  A0D8               	btfss	status,0,c
  2782  001520  EF94  F00A         	goto	u921
  2783  001524  EF96  F00A         	goto	u920
  2784  001528                     u921:
  2785  001528  EF6B  F00A         	goto	l1609
  2786  00152C                     u920:
  2787  00152C  0012               	return		;funcret
  2788  00152E                     __end_of_atraso_ms:
  2789                           	callstack 0
  2790                           
  2791 ;; *************** function _exibeSeg *****************
  2792 ;; Defined at:
  2793 ;;		line 74 in file "caixaeletronica.c"
  2794 ;; Parameters:    Size  Location     Type
  2795 ;;  saldo           4    0[COMRAM] struct valor
  2796 ;; Auto vars:     Size  Location     Type
  2797 ;;  k               2    4[COMRAM] unsigned int 
  2798 ;;  i               2    0        unsigned int 
  2799 ;; Return value:  Size  Location     Type
  2800 ;;                  1    wreg      void 
  2801 ;; Registers used:
  2802 ;;		wreg, status,2, status,0
  2803 ;; Tracked objects:
  2804 ;;		On entry : 0/0
  2805 ;;		On exit  : 0/0
  2806 ;;		Unchanged: 0/0
  2807 ;; Data sizes:     COMRAM   BANK0   BANK1   BANK2   BANK3   BANK4   BANK5
  2808 ;;      Params:         4       0       0       0       0       0       0
  2809 ;;      Locals:         2       0       0       0       0       0       0
  2810 ;;      Temps:          0       0       0       0       0       0       0
  2811 ;;      Totals:         6       0       0       0       0       0       0
  2812 ;;Total ram usage:        6 bytes
  2813 ;; Hardware stack levels used:    1
  2814 ;; This function calls:
  2815 ;;		Nothing
  2816 ;; This function is called by:
  2817 ;;		_main
  2818 ;; This function uses a non-reentrant model
  2819 ;;
  2820                           
  2821                           	psect	text12
  2822  00069A                     __ptext12:
  2823                           	callstack 0
  2824  00069A                     _exibeSeg:
  2825                           	callstack 30
  2826  00069A                     
  2827                           ;caixaeletronica.c: 75:     int unsigned k, i;;caixaeletronica.c: 77:     (((*(volatile 
      +                          __near unsigned char*)0xFF1)) &= ~(1<<7));
  2828  00069A  9EF1               	bcf	241,7,c	;volatile
  2829  00069C                     
  2830                           ;caixaeletronica.c: 78:     (*(volatile __near unsigned char*)0xFC1) = 0x0E;
  2831  00069C  0E0E               	movlw	14
  2832  00069E  6EC1               	movwf	193,c	;volatile
  2833  0006A0                     
  2834                           ;caixaeletronica.c: 79:     (*(volatile __near unsigned char*)0xF92) = 0x00;
  2835  0006A0  0E00               	movlw	0
  2836  0006A2  6E92               	movwf	146,c	;volatile
  2837  0006A4                     
  2838                           ;caixaeletronica.c: 80:     (*(volatile __near unsigned char*)0xF95) = 0x00;
  2839  0006A4  0E00               	movlw	0
  2840  0006A6  6E95               	movwf	149,c	;volatile
  2841  0006A8                     
  2842                           ;caixaeletronica.c: 81:     (*(volatile __near unsigned char*)0xF83) = 0x00;
  2843  0006A8  0E00               	movlw	0
  2844  0006AA  6E83               	movwf	131,c	;volatile
  2845                           
  2846                           ;caixaeletronica.c: 82:     while ((((*(volatile __near unsigned char*)0xF81)) & (1<<0))
      +                          ) {
  2847  0006AC  EF64  F005         	goto	l26
  2848  0006B0                     l1819:
  2849                           
  2850                           ;caixaeletronica.c: 85:         if (saldo.x[3] == 48) {
  2851  0006B0  0E30               	movlw	48
  2852  0006B2  1804               	xorwf	(exibeSeg@saldo+3)^0,w,c
  2853  0006B4  A4D8               	btfss	status,2,c
  2854  0006B6  EF5F  F003         	goto	u1121
  2855  0006BA  EF61  F003         	goto	u1120
  2856  0006BE                     u1121:
  2857  0006BE  EF63  F003         	goto	l1823
  2858  0006C2                     u1120:
  2859  0006C2                     
  2860                           ;caixaeletronica.c: 86:             (*(volatile __near unsigned char*)0xF83) = 0x3F;
  2861  0006C2  0E3F               	movlw	63
  2862  0006C4  6E83               	movwf	131,c	;volatile
  2863  0006C6                     l1823:
  2864                           
  2865                           ;caixaeletronica.c: 88:         if (saldo.x[3] == 49) {
  2866  0006C6  0E31               	movlw	49
  2867  0006C8  1804               	xorwf	(exibeSeg@saldo+3)^0,w,c
  2868  0006CA  A4D8               	btfss	status,2,c
  2869  0006CC  EF6A  F003         	goto	u1131
  2870  0006D0  EF6C  F003         	goto	u1130
  2871  0006D4                     u1131:
  2872  0006D4  EF6E  F003         	goto	l1827
  2873  0006D8                     u1130:
  2874  0006D8                     
  2875                           ;caixaeletronica.c: 89:             (*(volatile __near unsigned char*)0xF83) = 0x06;
  2876  0006D8  0E06               	movlw	6
  2877  0006DA  6E83               	movwf	131,c	;volatile
  2878  0006DC                     l1827:
  2879                           
  2880                           ;caixaeletronica.c: 91:         if (saldo.x[3] == 50) {
  2881  0006DC  0E32               	movlw	50
  2882  0006DE  1804               	xorwf	(exibeSeg@saldo+3)^0,w,c
  2883  0006E0  A4D8               	btfss	status,2,c
  2884  0006E2  EF75  F003         	goto	u1141
  2885  0006E6  EF77  F003         	goto	u1140
  2886  0006EA                     u1141:
  2887  0006EA  EF79  F003         	goto	l1831
  2888  0006EE                     u1140:
  2889  0006EE                     
  2890                           ;caixaeletronica.c: 92:             (*(volatile __near unsigned char*)0xF83) = 0x5B;
  2891  0006EE  0E5B               	movlw	91
  2892  0006F0  6E83               	movwf	131,c	;volatile
  2893  0006F2                     l1831:
  2894                           
  2895                           ;caixaeletronica.c: 94:         if (saldo.x[3] == 51) {
  2896  0006F2  0E33               	movlw	51
  2897  0006F4  1804               	xorwf	(exibeSeg@saldo+3)^0,w,c
  2898  0006F6  A4D8               	btfss	status,2,c
  2899  0006F8  EF80  F003         	goto	u1151
  2900  0006FC  EF82  F003         	goto	u1150
  2901  000700                     u1151:
  2902  000700  EF84  F003         	goto	l1835
  2903  000704                     u1150:
  2904  000704                     
  2905                           ;caixaeletronica.c: 95:             (*(volatile __near unsigned char*)0xF83) = 0x4F;
  2906  000704  0E4F               	movlw	79
  2907  000706  6E83               	movwf	131,c	;volatile
  2908  000708                     l1835:
  2909                           
  2910                           ;caixaeletronica.c: 97:         if (saldo.x[3] == 52) {
  2911  000708  0E34               	movlw	52
  2912  00070A  1804               	xorwf	(exibeSeg@saldo+3)^0,w,c
  2913  00070C  A4D8               	btfss	status,2,c
  2914  00070E  EF8B  F003         	goto	u1161
  2915  000712  EF8D  F003         	goto	u1160
  2916  000716                     u1161:
  2917  000716  EF8F  F003         	goto	l1839
  2918  00071A                     u1160:
  2919  00071A                     
  2920                           ;caixaeletronica.c: 98:             (*(volatile __near unsigned char*)0xF83) = 0x66;
  2921  00071A  0E66               	movlw	102
  2922  00071C  6E83               	movwf	131,c	;volatile
  2923  00071E                     l1839:
  2924                           
  2925                           ;caixaeletronica.c: 100:         if (saldo.x[3] == 53) {
  2926  00071E  0E35               	movlw	53
  2927  000720  1804               	xorwf	(exibeSeg@saldo+3)^0,w,c
  2928  000722  A4D8               	btfss	status,2,c
  2929  000724  EF96  F003         	goto	u1171
  2930  000728  EF98  F003         	goto	u1170
  2931  00072C                     u1171:
  2932  00072C  EF9A  F003         	goto	l1843
  2933  000730                     u1170:
  2934  000730                     
  2935                           ;caixaeletronica.c: 101:             (*(volatile __near unsigned char*)0xF83) = 0x6D;
  2936  000730  0E6D               	movlw	109
  2937  000732  6E83               	movwf	131,c	;volatile
  2938  000734                     l1843:
  2939                           
  2940                           ;caixaeletronica.c: 103:         if (saldo.x[3] == 54) {
  2941  000734  0E36               	movlw	54
  2942  000736  1804               	xorwf	(exibeSeg@saldo+3)^0,w,c
  2943  000738  A4D8               	btfss	status,2,c
  2944  00073A  EFA1  F003         	goto	u1181
  2945  00073E  EFA3  F003         	goto	u1180
  2946  000742                     u1181:
  2947  000742  EFA5  F003         	goto	l1847
  2948  000746                     u1180:
  2949  000746                     
  2950                           ;caixaeletronica.c: 104:             (*(volatile __near unsigned char*)0xF83) = 0x7D;
  2951  000746  0E7D               	movlw	125
  2952  000748  6E83               	movwf	131,c	;volatile
  2953  00074A                     l1847:
  2954                           
  2955                           ;caixaeletronica.c: 106:         if (saldo.x[3] == 55) {
  2956  00074A  0E37               	movlw	55
  2957  00074C  1804               	xorwf	(exibeSeg@saldo+3)^0,w,c
  2958  00074E  A4D8               	btfss	status,2,c
  2959  000750  EFAC  F003         	goto	u1191
  2960  000754  EFAE  F003         	goto	u1190
  2961  000758                     u1191:
  2962  000758  EFB0  F003         	goto	l1851
  2963  00075C                     u1190:
  2964  00075C                     
  2965                           ;caixaeletronica.c: 107:             (*(volatile __near unsigned char*)0xF83) = 0x07;
  2966  00075C  0E07               	movlw	7
  2967  00075E  6E83               	movwf	131,c	;volatile
  2968  000760                     l1851:
  2969                           
  2970                           ;caixaeletronica.c: 109:         if (saldo.x[3] == 56) {
  2971  000760  0E38               	movlw	56
  2972  000762  1804               	xorwf	(exibeSeg@saldo+3)^0,w,c
  2973  000764  A4D8               	btfss	status,2,c
  2974  000766  EFB7  F003         	goto	u1201
  2975  00076A  EFB9  F003         	goto	u1200
  2976  00076E                     u1201:
  2977  00076E  EFBB  F003         	goto	l1855
  2978  000772                     u1200:
  2979  000772                     
  2980                           ;caixaeletronica.c: 110:             (*(volatile __near unsigned char*)0xF83) = 0x7F;
  2981  000772  0E7F               	movlw	127
  2982  000774  6E83               	movwf	131,c	;volatile
  2983  000776                     l1855:
  2984                           
  2985                           ;caixaeletronica.c: 112:         if (saldo.x[3] == 57) {
  2986  000776  0E39               	movlw	57
  2987  000778  1804               	xorwf	(exibeSeg@saldo+3)^0,w,c
  2988  00077A  A4D8               	btfss	status,2,c
  2989  00077C  EFC2  F003         	goto	u1211
  2990  000780  EFC4  F003         	goto	u1210
  2991  000784                     u1211:
  2992  000784  EFC6  F003         	goto	l1859
  2993  000788                     u1210:
  2994  000788                     
  2995                           ;caixaeletronica.c: 113:             (*(volatile __near unsigned char*)0xF83) = 0x6F;
  2996  000788  0E6F               	movlw	111
  2997  00078A  6E83               	movwf	131,c	;volatile
  2998  00078C                     l1859:
  2999                           
  3000                           ;caixaeletronica.c: 116:         (((*(volatile __near unsigned char*)0xF80)) |= (1<<5));
  3001  00078C  8A80               	bsf	128,5,c	;volatile
  3002  00078E                     
  3003                           ;caixaeletronica.c: 117:         (((*(volatile __near unsigned char*)0xF80)) &= ~(1<<4))
      +                          ;
  3004  00078E  9880               	bcf	128,4,c	;volatile
  3005  000790                     
  3006                           ;caixaeletronica.c: 118:         (((*(volatile __near unsigned char*)0xF80)) &= ~(1<<3))
      +                          ;
  3007  000790  9680               	bcf	128,3,c	;volatile
  3008  000792                     
  3009                           ;caixaeletronica.c: 119:         (((*(volatile __near unsigned char*)0xF80)) &= ~(1<<2))
      +                          ;
  3010  000792  9480               	bcf	128,2,c	;volatile
  3011                           
  3012                           ;caixaeletronica.c: 120:         for (k = 0; k < 1500; k++);
  3013  000794  0E00               	movlw	0
  3014  000796  6E06               	movwf	(exibeSeg@k+1)^0,c
  3015  000798  0E00               	movlw	0
  3016  00079A  6E05               	movwf	exibeSeg@k^0,c
  3017  00079C                     l1871:
  3018  00079C  4A05               	infsnz	exibeSeg@k^0,f,c
  3019  00079E  2A06               	incf	(exibeSeg@k+1)^0,f,c
  3020  0007A0  0EDC               	movlw	220
  3021  0007A2  5C05               	subwf	exibeSeg@k^0,w,c
  3022  0007A4  0E05               	movlw	5
  3023  0007A6  5806               	subwfb	(exibeSeg@k+1)^0,w,c
  3024  0007A8  A0D8               	btfss	status,0,c
  3025  0007AA  EFD9  F003         	goto	u1221
  3026  0007AE  EFDB  F003         	goto	u1220
  3027  0007B2                     u1221:
  3028  0007B2  EFCE  F003         	goto	l1871
  3029  0007B6                     u1220:
  3030  0007B6                     
  3031                           ;caixaeletronica.c: 123:         if (saldo.x[2] == 48) {
  3032  0007B6  0E30               	movlw	48
  3033  0007B8  1803               	xorwf	(exibeSeg@saldo+2)^0,w,c
  3034  0007BA  A4D8               	btfss	status,2,c
  3035  0007BC  EFE2  F003         	goto	u1231
  3036  0007C0  EFE4  F003         	goto	u1230
  3037  0007C4                     u1231:
  3038  0007C4  EFE6  F003         	goto	l1879
  3039  0007C8                     u1230:
  3040  0007C8                     
  3041                           ;caixaeletronica.c: 124:             (*(volatile __near unsigned char*)0xF83) = 0x3F;
  3042  0007C8  0E3F               	movlw	63
  3043  0007CA  6E83               	movwf	131,c	;volatile
  3044  0007CC                     l1879:
  3045                           
  3046                           ;caixaeletronica.c: 126:         if (saldo.x[2] == 49) {
  3047  0007CC  0E31               	movlw	49
  3048  0007CE  1803               	xorwf	(exibeSeg@saldo+2)^0,w,c
  3049  0007D0  A4D8               	btfss	status,2,c
  3050  0007D2  EFED  F003         	goto	u1241
  3051  0007D6  EFEF  F003         	goto	u1240
  3052  0007DA                     u1241:
  3053  0007DA  EFF1  F003         	goto	l1883
  3054  0007DE                     u1240:
  3055  0007DE                     
  3056                           ;caixaeletronica.c: 127:             (*(volatile __near unsigned char*)0xF83) = 0x06;
  3057  0007DE  0E06               	movlw	6
  3058  0007E0  6E83               	movwf	131,c	;volatile
  3059  0007E2                     l1883:
  3060                           
  3061                           ;caixaeletronica.c: 129:         if (saldo.x[2] == 50) {
  3062  0007E2  0E32               	movlw	50
  3063  0007E4  1803               	xorwf	(exibeSeg@saldo+2)^0,w,c
  3064  0007E6  A4D8               	btfss	status,2,c
  3065  0007E8  EFF8  F003         	goto	u1251
  3066  0007EC  EFFA  F003         	goto	u1250
  3067  0007F0                     u1251:
  3068  0007F0  EFFC  F003         	goto	l1887
  3069  0007F4                     u1250:
  3070  0007F4                     
  3071                           ;caixaeletronica.c: 130:             (*(volatile __near unsigned char*)0xF83) = 0x5B;
  3072  0007F4  0E5B               	movlw	91
  3073  0007F6  6E83               	movwf	131,c	;volatile
  3074  0007F8                     l1887:
  3075                           
  3076                           ;caixaeletronica.c: 132:         if (saldo.x[2] == 51) {
  3077  0007F8  0E33               	movlw	51
  3078  0007FA  1803               	xorwf	(exibeSeg@saldo+2)^0,w,c
  3079  0007FC  A4D8               	btfss	status,2,c
  3080  0007FE  EF03  F004         	goto	u1261
  3081  000802  EF05  F004         	goto	u1260
  3082  000806                     u1261:
  3083  000806  EF07  F004         	goto	l1891
  3084  00080A                     u1260:
  3085  00080A                     
  3086                           ;caixaeletronica.c: 133:             (*(volatile __near unsigned char*)0xF83) = 0x4F;
  3087  00080A  0E4F               	movlw	79
  3088  00080C  6E83               	movwf	131,c	;volatile
  3089  00080E                     l1891:
  3090                           
  3091                           ;caixaeletronica.c: 135:         if (saldo.x[2] == 52) {
  3092  00080E  0E34               	movlw	52
  3093  000810  1803               	xorwf	(exibeSeg@saldo+2)^0,w,c
  3094  000812  A4D8               	btfss	status,2,c
  3095  000814  EF0E  F004         	goto	u1271
  3096  000818  EF10  F004         	goto	u1270
  3097  00081C                     u1271:
  3098  00081C  EF12  F004         	goto	l1895
  3099  000820                     u1270:
  3100  000820                     
  3101                           ;caixaeletronica.c: 136:             (*(volatile __near unsigned char*)0xF83) = 0x66;
  3102  000820  0E66               	movlw	102
  3103  000822  6E83               	movwf	131,c	;volatile
  3104  000824                     l1895:
  3105                           
  3106                           ;caixaeletronica.c: 138:         if (saldo.x[2] == 53) {
  3107  000824  0E35               	movlw	53
  3108  000826  1803               	xorwf	(exibeSeg@saldo+2)^0,w,c
  3109  000828  A4D8               	btfss	status,2,c
  3110  00082A  EF19  F004         	goto	u1281
  3111  00082E  EF1B  F004         	goto	u1280
  3112  000832                     u1281:
  3113  000832  EF1D  F004         	goto	l1899
  3114  000836                     u1280:
  3115  000836                     
  3116                           ;caixaeletronica.c: 139:             (*(volatile __near unsigned char*)0xF83) = 0x6D;
  3117  000836  0E6D               	movlw	109
  3118  000838  6E83               	movwf	131,c	;volatile
  3119  00083A                     l1899:
  3120                           
  3121                           ;caixaeletronica.c: 141:         if (saldo.x[2] == 54) {
  3122  00083A  0E36               	movlw	54
  3123  00083C  1803               	xorwf	(exibeSeg@saldo+2)^0,w,c
  3124  00083E  A4D8               	btfss	status,2,c
  3125  000840  EF24  F004         	goto	u1291
  3126  000844  EF26  F004         	goto	u1290
  3127  000848                     u1291:
  3128  000848  EF28  F004         	goto	l1903
  3129  00084C                     u1290:
  3130  00084C                     
  3131                           ;caixaeletronica.c: 142:             (*(volatile __near unsigned char*)0xF83) = 0x7D;
  3132  00084C  0E7D               	movlw	125
  3133  00084E  6E83               	movwf	131,c	;volatile
  3134  000850                     l1903:
  3135                           
  3136                           ;caixaeletronica.c: 144:         if (saldo.x[2] == 55) {
  3137  000850  0E37               	movlw	55
  3138  000852  1803               	xorwf	(exibeSeg@saldo+2)^0,w,c
  3139  000854  A4D8               	btfss	status,2,c
  3140  000856  EF2F  F004         	goto	u1301
  3141  00085A  EF31  F004         	goto	u1300
  3142  00085E                     u1301:
  3143  00085E  EF33  F004         	goto	l1907
  3144  000862                     u1300:
  3145  000862                     
  3146                           ;caixaeletronica.c: 145:             (*(volatile __near unsigned char*)0xF83) = 0x07;
  3147  000862  0E07               	movlw	7
  3148  000864  6E83               	movwf	131,c	;volatile
  3149  000866                     l1907:
  3150                           
  3151                           ;caixaeletronica.c: 147:         if (saldo.x[2] == 56) {
  3152  000866  0E38               	movlw	56
  3153  000868  1803               	xorwf	(exibeSeg@saldo+2)^0,w,c
  3154  00086A  A4D8               	btfss	status,2,c
  3155  00086C  EF3A  F004         	goto	u1311
  3156  000870  EF3C  F004         	goto	u1310
  3157  000874                     u1311:
  3158  000874  EF3E  F004         	goto	l1911
  3159  000878                     u1310:
  3160  000878                     
  3161                           ;caixaeletronica.c: 148:             (*(volatile __near unsigned char*)0xF83) = 0x7F;
  3162  000878  0E7F               	movlw	127
  3163  00087A  6E83               	movwf	131,c	;volatile
  3164  00087C                     l1911:
  3165                           
  3166                           ;caixaeletronica.c: 150:         if (saldo.x[2] == 57) {
  3167  00087C  0E39               	movlw	57
  3168  00087E  1803               	xorwf	(exibeSeg@saldo+2)^0,w,c
  3169  000880  A4D8               	btfss	status,2,c
  3170  000882  EF45  F004         	goto	u1321
  3171  000886  EF47  F004         	goto	u1320
  3172  00088A                     u1321:
  3173  00088A  EF49  F004         	goto	l1915
  3174  00088E                     u1320:
  3175  00088E                     
  3176                           ;caixaeletronica.c: 151:             (*(volatile __near unsigned char*)0xF83) = 0x6F;
  3177  00088E  0E6F               	movlw	111
  3178  000890  6E83               	movwf	131,c	;volatile
  3179  000892                     l1915:
  3180                           
  3181                           ;caixaeletronica.c: 154:         (((*(volatile __near unsigned char*)0xF80)) &= ~(1<<5))
      +                          ;
  3182  000892  9A80               	bcf	128,5,c	;volatile
  3183  000894                     
  3184                           ;caixaeletronica.c: 155:         (((*(volatile __near unsigned char*)0xF80)) |= (1<<4));
  3185  000894  8880               	bsf	128,4,c	;volatile
  3186  000896                     
  3187                           ;caixaeletronica.c: 156:         (((*(volatile __near unsigned char*)0xF80)) &= ~(1<<3))
      +                          ;
  3188  000896  9680               	bcf	128,3,c	;volatile
  3189  000898                     
  3190                           ;caixaeletronica.c: 157:         (((*(volatile __near unsigned char*)0xF80)) &= ~(1<<2))
      +                          ;
  3191  000898  9480               	bcf	128,2,c	;volatile
  3192                           
  3193                           ;caixaeletronica.c: 158:         for (k = 0; k < 1500; k++);
  3194  00089A  0E00               	movlw	0
  3195  00089C  6E06               	movwf	(exibeSeg@k+1)^0,c
  3196  00089E  0E00               	movlw	0
  3197  0008A0  6E05               	movwf	exibeSeg@k^0,c
  3198  0008A2                     l1927:
  3199  0008A2  4A05               	infsnz	exibeSeg@k^0,f,c
  3200  0008A4  2A06               	incf	(exibeSeg@k+1)^0,f,c
  3201  0008A6  0EDC               	movlw	220
  3202  0008A8  5C05               	subwf	exibeSeg@k^0,w,c
  3203  0008AA  0E05               	movlw	5
  3204  0008AC  5806               	subwfb	(exibeSeg@k+1)^0,w,c
  3205  0008AE  A0D8               	btfss	status,0,c
  3206  0008B0  EF5C  F004         	goto	u1331
  3207  0008B4  EF5E  F004         	goto	u1330
  3208  0008B8                     u1331:
  3209  0008B8  EF51  F004         	goto	l1927
  3210  0008BC                     u1330:
  3211  0008BC                     
  3212                           ;caixaeletronica.c: 160:         if (saldo.x[1] == 48) {
  3213  0008BC  0E30               	movlw	48
  3214  0008BE  1802               	xorwf	(exibeSeg@saldo+1)^0,w,c
  3215  0008C0  A4D8               	btfss	status,2,c
  3216  0008C2  EF65  F004         	goto	u1341
  3217  0008C6  EF67  F004         	goto	u1340
  3218  0008CA                     u1341:
  3219  0008CA  EF69  F004         	goto	l1935
  3220  0008CE                     u1340:
  3221  0008CE                     
  3222                           ;caixaeletronica.c: 161:             (*(volatile __near unsigned char*)0xF83) = 0x3F;
  3223  0008CE  0E3F               	movlw	63
  3224  0008D0  6E83               	movwf	131,c	;volatile
  3225  0008D2                     l1935:
  3226                           
  3227                           ;caixaeletronica.c: 163:         if (saldo.x[1] == 49) {
  3228  0008D2  0E31               	movlw	49
  3229  0008D4  1802               	xorwf	(exibeSeg@saldo+1)^0,w,c
  3230  0008D6  A4D8               	btfss	status,2,c
  3231  0008D8  EF70  F004         	goto	u1351
  3232  0008DC  EF72  F004         	goto	u1350
  3233  0008E0                     u1351:
  3234  0008E0  EF74  F004         	goto	l1939
  3235  0008E4                     u1350:
  3236  0008E4                     
  3237                           ;caixaeletronica.c: 164:             (*(volatile __near unsigned char*)0xF83) = 0x06;
  3238  0008E4  0E06               	movlw	6
  3239  0008E6  6E83               	movwf	131,c	;volatile
  3240  0008E8                     l1939:
  3241                           
  3242                           ;caixaeletronica.c: 166:         if (saldo.x[1] == 50) {
  3243  0008E8  0E32               	movlw	50
  3244  0008EA  1802               	xorwf	(exibeSeg@saldo+1)^0,w,c
  3245  0008EC  A4D8               	btfss	status,2,c
  3246  0008EE  EF7B  F004         	goto	u1361
  3247  0008F2  EF7D  F004         	goto	u1360
  3248  0008F6                     u1361:
  3249  0008F6  EF7F  F004         	goto	l1943
  3250  0008FA                     u1360:
  3251  0008FA                     
  3252                           ;caixaeletronica.c: 167:             (*(volatile __near unsigned char*)0xF83) = 0x5B;
  3253  0008FA  0E5B               	movlw	91
  3254  0008FC  6E83               	movwf	131,c	;volatile
  3255  0008FE                     l1943:
  3256                           
  3257                           ;caixaeletronica.c: 169:         if (saldo.x[1] == 51) {
  3258  0008FE  0E33               	movlw	51
  3259  000900  1802               	xorwf	(exibeSeg@saldo+1)^0,w,c
  3260  000902  A4D8               	btfss	status,2,c
  3261  000904  EF86  F004         	goto	u1371
  3262  000908  EF88  F004         	goto	u1370
  3263  00090C                     u1371:
  3264  00090C  EF8A  F004         	goto	l1947
  3265  000910                     u1370:
  3266  000910                     
  3267                           ;caixaeletronica.c: 170:             (*(volatile __near unsigned char*)0xF83) = 0x4F;
  3268  000910  0E4F               	movlw	79
  3269  000912  6E83               	movwf	131,c	;volatile
  3270  000914                     l1947:
  3271                           
  3272                           ;caixaeletronica.c: 172:         if (saldo.x[1] == 52) {
  3273  000914  0E34               	movlw	52
  3274  000916  1802               	xorwf	(exibeSeg@saldo+1)^0,w,c
  3275  000918  A4D8               	btfss	status,2,c
  3276  00091A  EF91  F004         	goto	u1381
  3277  00091E  EF93  F004         	goto	u1380
  3278  000922                     u1381:
  3279  000922  EF95  F004         	goto	l1951
  3280  000926                     u1380:
  3281  000926                     
  3282                           ;caixaeletronica.c: 173:             (*(volatile __near unsigned char*)0xF83) = 0x66;
  3283  000926  0E66               	movlw	102
  3284  000928  6E83               	movwf	131,c	;volatile
  3285  00092A                     l1951:
  3286                           
  3287                           ;caixaeletronica.c: 175:         if (saldo.x[1] == 53) {
  3288  00092A  0E35               	movlw	53
  3289  00092C  1802               	xorwf	(exibeSeg@saldo+1)^0,w,c
  3290  00092E  A4D8               	btfss	status,2,c
  3291  000930  EF9C  F004         	goto	u1391
  3292  000934  EF9E  F004         	goto	u1390
  3293  000938                     u1391:
  3294  000938  EFA0  F004         	goto	l1955
  3295  00093C                     u1390:
  3296  00093C                     
  3297                           ;caixaeletronica.c: 176:             (*(volatile __near unsigned char*)0xF83) = 0x6D;
  3298  00093C  0E6D               	movlw	109
  3299  00093E  6E83               	movwf	131,c	;volatile
  3300  000940                     l1955:
  3301                           
  3302                           ;caixaeletronica.c: 178:         if (saldo.x[1] == 54) {
  3303  000940  0E36               	movlw	54
  3304  000942  1802               	xorwf	(exibeSeg@saldo+1)^0,w,c
  3305  000944  A4D8               	btfss	status,2,c
  3306  000946  EFA7  F004         	goto	u1401
  3307  00094A  EFA9  F004         	goto	u1400
  3308  00094E                     u1401:
  3309  00094E  EFAB  F004         	goto	l1959
  3310  000952                     u1400:
  3311  000952                     
  3312                           ;caixaeletronica.c: 179:             (*(volatile __near unsigned char*)0xF83) = 0x7D;
  3313  000952  0E7D               	movlw	125
  3314  000954  6E83               	movwf	131,c	;volatile
  3315  000956                     l1959:
  3316                           
  3317                           ;caixaeletronica.c: 181:         if (saldo.x[1] == 55) {
  3318  000956  0E37               	movlw	55
  3319  000958  1802               	xorwf	(exibeSeg@saldo+1)^0,w,c
  3320  00095A  A4D8               	btfss	status,2,c
  3321  00095C  EFB2  F004         	goto	u1411
  3322  000960  EFB4  F004         	goto	u1410
  3323  000964                     u1411:
  3324  000964  EFB6  F004         	goto	l1963
  3325  000968                     u1410:
  3326  000968                     
  3327                           ;caixaeletronica.c: 182:             (*(volatile __near unsigned char*)0xF83) = 0x07;
  3328  000968  0E07               	movlw	7
  3329  00096A  6E83               	movwf	131,c	;volatile
  3330  00096C                     l1963:
  3331                           
  3332                           ;caixaeletronica.c: 184:         if (saldo.x[1] == 56) {
  3333  00096C  0E38               	movlw	56
  3334  00096E  1802               	xorwf	(exibeSeg@saldo+1)^0,w,c
  3335  000970  A4D8               	btfss	status,2,c
  3336  000972  EFBD  F004         	goto	u1421
  3337  000976  EFBF  F004         	goto	u1420
  3338  00097A                     u1421:
  3339  00097A  EFC1  F004         	goto	l1967
  3340  00097E                     u1420:
  3341  00097E                     
  3342                           ;caixaeletronica.c: 185:             (*(volatile __near unsigned char*)0xF83) = 0x7F;
  3343  00097E  0E7F               	movlw	127
  3344  000980  6E83               	movwf	131,c	;volatile
  3345  000982                     l1967:
  3346                           
  3347                           ;caixaeletronica.c: 187:         if (saldo.x[1] == 57) {
  3348  000982  0E39               	movlw	57
  3349  000984  1802               	xorwf	(exibeSeg@saldo+1)^0,w,c
  3350  000986  A4D8               	btfss	status,2,c
  3351  000988  EFC8  F004         	goto	u1431
  3352  00098C  EFCA  F004         	goto	u1430
  3353  000990                     u1431:
  3354  000990  EFCC  F004         	goto	l1971
  3355  000994                     u1430:
  3356  000994                     
  3357                           ;caixaeletronica.c: 188:             (*(volatile __near unsigned char*)0xF83) = 0x6F;
  3358  000994  0E6F               	movlw	111
  3359  000996  6E83               	movwf	131,c	;volatile
  3360  000998                     l1971:
  3361                           
  3362                           ;caixaeletronica.c: 191:         (((*(volatile __near unsigned char*)0xF80)) &= ~(1<<5))
      +                          ;
  3363  000998  9A80               	bcf	128,5,c	;volatile
  3364  00099A                     
  3365                           ;caixaeletronica.c: 192:         (((*(volatile __near unsigned char*)0xF80)) &= ~(1<<4))
      +                          ;
  3366  00099A  9880               	bcf	128,4,c	;volatile
  3367  00099C                     
  3368                           ;caixaeletronica.c: 193:         (((*(volatile __near unsigned char*)0xF80)) |= (1<<3));
  3369  00099C  8680               	bsf	128,3,c	;volatile
  3370  00099E                     
  3371                           ;caixaeletronica.c: 194:         (((*(volatile __near unsigned char*)0xF80)) &= ~(1<<2))
      +                          ;
  3372  00099E  9480               	bcf	128,2,c	;volatile
  3373                           
  3374                           ;caixaeletronica.c: 195:         for (k = 0; k < 1500; k++);
  3375  0009A0  0E00               	movlw	0
  3376  0009A2  6E06               	movwf	(exibeSeg@k+1)^0,c
  3377  0009A4  0E00               	movlw	0
  3378  0009A6  6E05               	movwf	exibeSeg@k^0,c
  3379  0009A8                     l1983:
  3380  0009A8  4A05               	infsnz	exibeSeg@k^0,f,c
  3381  0009AA  2A06               	incf	(exibeSeg@k+1)^0,f,c
  3382  0009AC  0EDC               	movlw	220
  3383  0009AE  5C05               	subwf	exibeSeg@k^0,w,c
  3384  0009B0  0E05               	movlw	5
  3385  0009B2  5806               	subwfb	(exibeSeg@k+1)^0,w,c
  3386  0009B4  A0D8               	btfss	status,0,c
  3387  0009B6  EFDF  F004         	goto	u1441
  3388  0009BA  EFE1  F004         	goto	u1440
  3389  0009BE                     u1441:
  3390  0009BE  EFD4  F004         	goto	l1983
  3391  0009C2                     u1440:
  3392  0009C2                     
  3393                           ;caixaeletronica.c: 197:         if (saldo.x[0] == 48) {
  3394  0009C2  0E30               	movlw	48
  3395  0009C4  1801               	xorwf	exibeSeg@saldo^0,w,c
  3396  0009C6  A4D8               	btfss	status,2,c
  3397  0009C8  EFE8  F004         	goto	u1451
  3398  0009CC  EFEA  F004         	goto	u1450
  3399  0009D0                     u1451:
  3400  0009D0  EFEC  F004         	goto	l1991
  3401  0009D4                     u1450:
  3402  0009D4                     
  3403                           ;caixaeletronica.c: 198:             (*(volatile __near unsigned char*)0xF83) = 0x3F;
  3404  0009D4  0E3F               	movlw	63
  3405  0009D6  6E83               	movwf	131,c	;volatile
  3406  0009D8                     l1991:
  3407                           
  3408                           ;caixaeletronica.c: 200:         if (saldo.x[0] == 49) {
  3409  0009D8  0E31               	movlw	49
  3410  0009DA  1801               	xorwf	exibeSeg@saldo^0,w,c
  3411  0009DC  A4D8               	btfss	status,2,c
  3412  0009DE  EFF3  F004         	goto	u1461
  3413  0009E2  EFF5  F004         	goto	u1460
  3414  0009E6                     u1461:
  3415  0009E6  EFF7  F004         	goto	l1995
  3416  0009EA                     u1460:
  3417  0009EA                     
  3418                           ;caixaeletronica.c: 201:             (*(volatile __near unsigned char*)0xF83) = 0x06;
  3419  0009EA  0E06               	movlw	6
  3420  0009EC  6E83               	movwf	131,c	;volatile
  3421  0009EE                     l1995:
  3422                           
  3423                           ;caixaeletronica.c: 203:         if (saldo.x[0] == 50) {
  3424  0009EE  0E32               	movlw	50
  3425  0009F0  1801               	xorwf	exibeSeg@saldo^0,w,c
  3426  0009F2  A4D8               	btfss	status,2,c
  3427  0009F4  EFFE  F004         	goto	u1471
  3428  0009F8  EF00  F005         	goto	u1470
  3429  0009FC                     u1471:
  3430  0009FC  EF02  F005         	goto	l1999
  3431  000A00                     u1470:
  3432  000A00                     
  3433                           ;caixaeletronica.c: 204:             (*(volatile __near unsigned char*)0xF83) = 0x5B;
  3434  000A00  0E5B               	movlw	91
  3435  000A02  6E83               	movwf	131,c	;volatile
  3436  000A04                     l1999:
  3437                           
  3438                           ;caixaeletronica.c: 206:         if (saldo.x[0] == 51) {
  3439  000A04  0E33               	movlw	51
  3440  000A06  1801               	xorwf	exibeSeg@saldo^0,w,c
  3441  000A08  A4D8               	btfss	status,2,c
  3442  000A0A  EF09  F005         	goto	u1481
  3443  000A0E  EF0B  F005         	goto	u1480
  3444  000A12                     u1481:
  3445  000A12  EF0D  F005         	goto	l2003
  3446  000A16                     u1480:
  3447  000A16                     
  3448                           ;caixaeletronica.c: 207:             (*(volatile __near unsigned char*)0xF83) = 0x4F;
  3449  000A16  0E4F               	movlw	79
  3450  000A18  6E83               	movwf	131,c	;volatile
  3451  000A1A                     l2003:
  3452                           
  3453                           ;caixaeletronica.c: 209:         if (saldo.x[0] == 52) {
  3454  000A1A  0E34               	movlw	52
  3455  000A1C  1801               	xorwf	exibeSeg@saldo^0,w,c
  3456  000A1E  A4D8               	btfss	status,2,c
  3457  000A20  EF14  F005         	goto	u1491
  3458  000A24  EF16  F005         	goto	u1490
  3459  000A28                     u1491:
  3460  000A28  EF18  F005         	goto	l2007
  3461  000A2C                     u1490:
  3462  000A2C                     
  3463                           ;caixaeletronica.c: 210:             (*(volatile __near unsigned char*)0xF83) = 0x66;
  3464  000A2C  0E66               	movlw	102
  3465  000A2E  6E83               	movwf	131,c	;volatile
  3466  000A30                     l2007:
  3467                           
  3468                           ;caixaeletronica.c: 212:         if (saldo.x[0] == 53) {
  3469  000A30  0E35               	movlw	53
  3470  000A32  1801               	xorwf	exibeSeg@saldo^0,w,c
  3471  000A34  A4D8               	btfss	status,2,c
  3472  000A36  EF1F  F005         	goto	u1501
  3473  000A3A  EF21  F005         	goto	u1500
  3474  000A3E                     u1501:
  3475  000A3E  EF23  F005         	goto	l2011
  3476  000A42                     u1500:
  3477  000A42                     
  3478                           ;caixaeletronica.c: 213:             (*(volatile __near unsigned char*)0xF83) = 0x6D;
  3479  000A42  0E6D               	movlw	109
  3480  000A44  6E83               	movwf	131,c	;volatile
  3481  000A46                     l2011:
  3482                           
  3483                           ;caixaeletronica.c: 215:         if (saldo.x[0] == 54) {
  3484  000A46  0E36               	movlw	54
  3485  000A48  1801               	xorwf	exibeSeg@saldo^0,w,c
  3486  000A4A  A4D8               	btfss	status,2,c
  3487  000A4C  EF2A  F005         	goto	u1511
  3488  000A50  EF2C  F005         	goto	u1510
  3489  000A54                     u1511:
  3490  000A54  EF2E  F005         	goto	l2015
  3491  000A58                     u1510:
  3492  000A58                     
  3493                           ;caixaeletronica.c: 216:             (*(volatile __near unsigned char*)0xF83) = 0x7D;
  3494  000A58  0E7D               	movlw	125
  3495  000A5A  6E83               	movwf	131,c	;volatile
  3496  000A5C                     l2015:
  3497                           
  3498                           ;caixaeletronica.c: 218:         if (saldo.x[0] == 55) {
  3499  000A5C  0E37               	movlw	55
  3500  000A5E  1801               	xorwf	exibeSeg@saldo^0,w,c
  3501  000A60  A4D8               	btfss	status,2,c
  3502  000A62  EF35  F005         	goto	u1521
  3503  000A66  EF37  F005         	goto	u1520
  3504  000A6A                     u1521:
  3505  000A6A  EF39  F005         	goto	l2019
  3506  000A6E                     u1520:
  3507  000A6E                     
  3508                           ;caixaeletronica.c: 219:             (*(volatile __near unsigned char*)0xF83) = 0x07;
  3509  000A6E  0E07               	movlw	7
  3510  000A70  6E83               	movwf	131,c	;volatile
  3511  000A72                     l2019:
  3512                           
  3513                           ;caixaeletronica.c: 221:         if (saldo.x[0] == 56) {
  3514  000A72  0E38               	movlw	56
  3515  000A74  1801               	xorwf	exibeSeg@saldo^0,w,c
  3516  000A76  A4D8               	btfss	status,2,c
  3517  000A78  EF40  F005         	goto	u1531
  3518  000A7C  EF42  F005         	goto	u1530
  3519  000A80                     u1531:
  3520  000A80  EF44  F005         	goto	l2023
  3521  000A84                     u1530:
  3522  000A84                     
  3523                           ;caixaeletronica.c: 222:             (*(volatile __near unsigned char*)0xF83) = 0x7F;
  3524  000A84  0E7F               	movlw	127
  3525  000A86  6E83               	movwf	131,c	;volatile
  3526  000A88                     l2023:
  3527                           
  3528                           ;caixaeletronica.c: 224:         if (saldo.x[0] == 57) {
  3529  000A88  0E39               	movlw	57
  3530  000A8A  1801               	xorwf	exibeSeg@saldo^0,w,c
  3531  000A8C  A4D8               	btfss	status,2,c
  3532  000A8E  EF4B  F005         	goto	u1541
  3533  000A92  EF4D  F005         	goto	u1540
  3534  000A96                     u1541:
  3535  000A96  EF4F  F005         	goto	l2027
  3536  000A9A                     u1540:
  3537  000A9A                     
  3538                           ;caixaeletronica.c: 225:             (*(volatile __near unsigned char*)0xF83) = 0x6F;
  3539  000A9A  0E6F               	movlw	111
  3540  000A9C  6E83               	movwf	131,c	;volatile
  3541  000A9E                     l2027:
  3542                           
  3543                           ;caixaeletronica.c: 227:         (((*(volatile __near unsigned char*)0xF80)) &= ~(1<<5))
      +                          ;
  3544  000A9E  9A80               	bcf	128,5,c	;volatile
  3545  000AA0                     
  3546                           ;caixaeletronica.c: 228:         (((*(volatile __near unsigned char*)0xF80)) &= ~(1<<4))
      +                          ;
  3547  000AA0  9880               	bcf	128,4,c	;volatile
  3548  000AA2                     
  3549                           ;caixaeletronica.c: 229:         (((*(volatile __near unsigned char*)0xF80)) &= ~(1<<3))
      +                          ;
  3550  000AA2  9680               	bcf	128,3,c	;volatile
  3551  000AA4                     
  3552                           ;caixaeletronica.c: 230:         (((*(volatile __near unsigned char*)0xF80)) |= (1<<2));
  3553  000AA4  8480               	bsf	128,2,c	;volatile
  3554                           
  3555                           ;caixaeletronica.c: 231:         for (k = 0; k < 1500; k++);
  3556  000AA6  0E00               	movlw	0
  3557  000AA8  6E06               	movwf	(exibeSeg@k+1)^0,c
  3558  000AAA  0E00               	movlw	0
  3559  000AAC  6E05               	movwf	exibeSeg@k^0,c
  3560  000AAE                     l2039:
  3561  000AAE  4A05               	infsnz	exibeSeg@k^0,f,c
  3562  000AB0  2A06               	incf	(exibeSeg@k+1)^0,f,c
  3563  000AB2  0EDC               	movlw	220
  3564  000AB4  5C05               	subwf	exibeSeg@k^0,w,c
  3565  000AB6  0E05               	movlw	5
  3566  000AB8  5806               	subwfb	(exibeSeg@k+1)^0,w,c
  3567  000ABA  A0D8               	btfss	status,0,c
  3568  000ABC  EF62  F005         	goto	u1551
  3569  000AC0  EF64  F005         	goto	u1550
  3570  000AC4                     u1551:
  3571  000AC4  EF57  F005         	goto	l2039
  3572  000AC8                     u1550:
  3573  000AC8                     l26:
  3574                           
  3575                           ;caixaeletronica.c: 82:     while ((((*(volatile __near unsigned char*)0xF81)) & (1<<0))
      +                          ) {
  3576  000AC8  B081               	btfsc	129,0,c	;volatile
  3577  000ACA  EF69  F005         	goto	u1561
  3578  000ACE  EF6B  F005         	goto	u1560
  3579  000AD2                     u1561:
  3580  000AD2  EF58  F003         	goto	l1819
  3581  000AD6                     u1560:
  3582  000AD6                     
  3583                           ;caixaeletronica.c: 233:     (((*(volatile __near unsigned char*)0xF80)) &= ~(1<<5));
  3584  000AD6  9A80               	bcf	128,5,c	;volatile
  3585                           
  3586                           ;caixaeletronica.c: 234:     (((*(volatile __near unsigned char*)0xF80)) &= ~(1<<4));
  3587  000AD8  9880               	bcf	128,4,c	;volatile
  3588                           
  3589                           ;caixaeletronica.c: 235:     (((*(volatile __near unsigned char*)0xF80)) &= ~(1<<3));
  3590  000ADA  9680               	bcf	128,3,c	;volatile
  3591                           
  3592                           ;caixaeletronica.c: 236:     (((*(volatile __near unsigned char*)0xF80)) &= ~(1<<2));
  3593  000ADC  9480               	bcf	128,2,c	;volatile
  3594  000ADE  0012               	return		;funcret
  3595  000AE0                     __end_of_exibeSeg:
  3596                           	callstack 0
  3597                           
  3598                           	psect	rparam
  3599  0000                     
  3600                           	psect	idloc
  3601                           
  3602                           ;Config register IDLOC0 @ 0x200000
  3603                           ;	unspecified, using default values
  3604  200000                     	org	2097152
  3605  200000  FF                 	db	255
  3606                           
  3607                           ;Config register IDLOC1 @ 0x200001
  3608                           ;	unspecified, using default values
  3609  200001                     	org	2097153
  3610  200001  FF                 	db	255
  3611                           
  3612                           ;Config register IDLOC2 @ 0x200002
  3613                           ;	unspecified, using default values
  3614  200002                     	org	2097154
  3615  200002  FF                 	db	255
  3616                           
  3617                           ;Config register IDLOC3 @ 0x200003
  3618                           ;	unspecified, using default values
  3619  200003                     	org	2097155
  3620  200003  FF                 	db	255
  3621                           
  3622                           ;Config register IDLOC4 @ 0x200004
  3623                           ;	unspecified, using default values
  3624  200004                     	org	2097156
  3625  200004  FF                 	db	255
  3626                           
  3627                           ;Config register IDLOC5 @ 0x200005
  3628                           ;	unspecified, using default values
  3629  200005                     	org	2097157
  3630  200005  FF                 	db	255
  3631                           
  3632                           ;Config register IDLOC6 @ 0x200006
  3633                           ;	unspecified, using default values
  3634  200006                     	org	2097158
  3635  200006  FF                 	db	255
  3636                           
  3637                           ;Config register IDLOC7 @ 0x200007
  3638                           ;	unspecified, using default values
  3639  200007                     	org	2097159
  3640  200007  FF                 	db	255
  3641                           
  3642                           	psect	config
  3643                           
  3644                           ; Padding undefined space
  3645  300000                     	org	3145728
  3646  300000  FF                 	db	255
  3647                           
  3648                           ;Config register CONFIG1H @ 0x300001
  3649                           ;	Oscillator Selection bits
  3650                           ;	OSC = HS, HS oscillator
  3651                           ;	Fail-Safe Clock Monitor Enable bit
  3652                           ;	FCMEN = 0x0, unprogrammed default
  3653                           ;	Internal/External Oscillator Switchover bit
  3654                           ;	IESO = 0x0, unprogrammed default
  3655  300001                     	org	3145729
  3656  300001  02                 	db	2
  3657                           
  3658                           ;Config register CONFIG2L @ 0x300002
  3659                           ;	unspecified, using default values
  3660                           ;	Power-up Timer Enable bit
  3661                           ;	PWRT = 0x1, unprogrammed default
  3662                           ;	Brown-out Reset Enable bits
  3663                           ;	BOREN = 0x3, unprogrammed default
  3664                           ;	Brown Out Reset Voltage bits
  3665                           ;	BORV = 0x3, unprogrammed default
  3666  300002                     	org	3145730
  3667  300002  1F                 	db	31
  3668                           
  3669                           ;Config register CONFIG2H @ 0x300003
  3670                           ;	Watchdog Timer Enable bit
  3671                           ;	WDT = OFF, WDT disabled (control is placed on the SWDTEN bit)
  3672                           ;	Watchdog Timer Postscale Select bits
  3673                           ;	WDTPS = 1, 1:1
  3674  300003                     	org	3145731
  3675  300003  00                 	db	0
  3676                           
  3677                           ; Padding undefined space
  3678  300004                     	org	3145732
  3679  300004  FF                 	db	255
  3680                           
  3681                           ;Config register CONFIG3H @ 0x300005
  3682                           ;	unspecified, using default values
  3683                           ;	CCP2 MUX bit
  3684                           ;	CCP2MX = 0x1, unprogrammed default
  3685                           ;	PORTB A/D Enable bit
  3686                           ;	PBADEN = 0x1, unprogrammed default
  3687                           ;	Low-Power Timer1 Oscillator Enable bit
  3688                           ;	LPT1OSC = 0x0, unprogrammed default
  3689                           ;	MCLR Pin Enable bit
  3690                           ;	MCLRE = 0x1, unprogrammed default
  3691  300005                     	org	3145733
  3692  300005  83                 	db	131
  3693                           
  3694                           ;Config register CONFIG4L @ 0x300006
  3695                           ;	Stack Full/Underflow Reset Enable bit
  3696                           ;	STVREN = 0x1, unprogrammed default
  3697                           ;	Single-Supply ICSP Enable bit
  3698                           ;	LVP = OFF, Single-Supply ICSP disabled
  3699                           ;	Extended Instruction Set Enable bit
  3700                           ;	XINST = 0x0, unprogrammed default
  3701                           ;	Background Debugger Enable bit
  3702                           ;	DEBUG = OFF, Background debugger disabled, RB6 and RB7 configured as general purpose I
      +                          /O pins
  3703  300006                     	org	3145734
  3704  300006  81                 	db	129
  3705                           
  3706                           ; Padding undefined space
  3707  300007                     	org	3145735
  3708  300007  FF                 	db	255
  3709                           
  3710                           ;Config register CONFIG5L @ 0x300008
  3711                           ;	unspecified, using default values
  3712                           ;	Code Protection bit
  3713                           ;	CP0 = 0x1, unprogrammed default
  3714                           ;	Code Protection bit
  3715                           ;	CP1 = 0x1, unprogrammed default
  3716                           ;	Code Protection bit
  3717                           ;	CP2 = 0x1, unprogrammed default
  3718                           ;	Code Protection bit
  3719                           ;	CP3 = 0x1, unprogrammed default
  3720  300008                     	org	3145736
  3721  300008  0F                 	db	15
  3722                           
  3723                           ;Config register CONFIG5H @ 0x300009
  3724                           ;	unspecified, using default values
  3725                           ;	Boot Block Code Protection bit
  3726                           ;	CPB = 0x1, unprogrammed default
  3727                           ;	Data EEPROM Code Protection bit
  3728                           ;	CPD = 0x1, unprogrammed default
  3729  300009                     	org	3145737
  3730  300009  C0                 	db	192
  3731                           
  3732                           ;Config register CONFIG6L @ 0x30000A
  3733                           ;	unspecified, using default values
  3734                           ;	Write Protection bit
  3735                           ;	WRT0 = 0x1, unprogrammed default
  3736                           ;	Write Protection bit
  3737                           ;	WRT1 = 0x1, unprogrammed default
  3738                           ;	Write Protection bit
  3739                           ;	WRT2 = 0x1, unprogrammed default
  3740                           ;	Write Protection bit
  3741                           ;	WRT3 = 0x1, unprogrammed default
  3742  30000A                     	org	3145738
  3743  30000A  0F                 	db	15
  3744                           
  3745                           ;Config register CONFIG6H @ 0x30000B
  3746                           ;	unspecified, using default values
  3747                           ;	Configuration Register Write Protection bit
  3748                           ;	WRTC = 0x1, unprogrammed default
  3749                           ;	Boot Block Write Protection bit
  3750                           ;	WRTB = 0x1, unprogrammed default
  3751                           ;	Data EEPROM Write Protection bit
  3752                           ;	WRTD = 0x1, unprogrammed default
  3753  30000B                     	org	3145739
  3754  30000B  E0                 	db	224
  3755                           
  3756                           ;Config register CONFIG7L @ 0x30000C
  3757                           ;	unspecified, using default values
  3758                           ;	Table Read Protection bit
  3759                           ;	EBTR0 = 0x1, unprogrammed default
  3760                           ;	Table Read Protection bit
  3761                           ;	EBTR1 = 0x1, unprogrammed default
  3762                           ;	Table Read Protection bit
  3763                           ;	EBTR2 = 0x1, unprogrammed default
  3764                           ;	Table Read Protection bit
  3765                           ;	EBTR3 = 0x1, unprogrammed default
  3766  30000C                     	org	3145740
  3767  30000C  0F                 	db	15
  3768                           
  3769                           ;Config register CONFIG7H @ 0x30000D
  3770                           ;	unspecified, using default values
  3771                           ;	Boot Block Table Read Protection bit
  3772                           ;	EBTRB = 0x1, unprogrammed default
  3773  30000D                     	org	3145741
  3774  30000D  40                 	db	64
  3775                           tosu	equ	0xFFF
  3776                           tosh	equ	0xFFE
  3777                           tosl	equ	0xFFD
  3778                           stkptr	equ	0xFFC
  3779                           pclatu	equ	0xFFB
  3780                           pclath	equ	0xFFA
  3781                           pcl	equ	0xFF9
  3782                           tblptru	equ	0xFF8
  3783                           tblptrh	equ	0xFF7
  3784                           tblptrl	equ	0xFF6
  3785                           tablat	equ	0xFF5
  3786                           prodh	equ	0xFF4
  3787                           prodl	equ	0xFF3
  3788                           indf0	equ	0xFEF
  3789                           postinc0	equ	0xFEE
  3790                           postdec0	equ	0xFED
  3791                           preinc0	equ	0xFEC
  3792                           plusw0	equ	0xFEB
  3793                           fsr0h	equ	0xFEA
  3794                           fsr0l	equ	0xFE9
  3795                           wreg	equ	0xFE8
  3796                           indf1	equ	0xFE7
  3797                           postinc1	equ	0xFE6
  3798                           postdec1	equ	0xFE5
  3799                           preinc1	equ	0xFE4
  3800                           plusw1	equ	0xFE3
  3801                           fsr1h	equ	0xFE2
  3802                           fsr1l	equ	0xFE1
  3803                           bsr	equ	0xFE0
  3804                           indf2	equ	0xFDF
  3805                           postinc2	equ	0xFDE
  3806                           postdec2	equ	0xFDD
  3807                           preinc2	equ	0xFDC
  3808                           plusw2	equ	0xFDB
  3809                           fsr2h	equ	0xFDA
  3810                           fsr2l	equ	0xFD9
  3811                           status	equ	0xFD8

Data Sizes:
    Strings     148
    Constant    4
    Data        14
    BSS         0
    Persistent  0
    Stack       0

Auto Spaces:
    Space          Size  Autos    Used
    COMRAM          127     51      65
    BANK0           128      0       0
    BANK1           256      0       0
    BANK2           256      0       0
    BANK3           256      0       0
    BANK4           256      0       0
    BANK5           256      0       0

Pointer List with Targets:

    lcd_str@str	PTR const unsigned char  size(2) Largest target is 36
		 -> STR_11(CODE[9]), STR_10(CODE[25]), STR_9(CODE[9]), STR_8(CODE[25]), 
		 -> STR_7(CODE[13]), STR_6(CODE[25]), STR_5(CODE[10]), STR_4(CODE[11]), 
		 -> STR_3(CODE[8]), STR_2(CODE[36]), STR_1(CODE[35]), 


Critical Paths under _main in COMRAM

    _main->_leconta
    _piscaLed->_atraso_ms
    _leconta->_tc_tecla
    _tc_tecla->_atraso_ms
    _lcd_str->_lcd_dat
    _lcd_dat->_atraso_ms
    _lcd_init->_lcd_cmd
    _lcd_cmd->_atraso_ms

Critical Paths under _main in BANK0

    None.

Critical Paths under _main in BANK1

    None.

Critical Paths under _main in BANK2

    None.

Critical Paths under _main in BANK3

    None.

Critical Paths under _main in BANK4

    None.

Critical Paths under _main in BANK5

    None.

Call Graph Tables:

 ---------------------------------------------------------------------------------
 (Depth) Function   	        Calls       Base Space   Used Autos Params    Refs
 ---------------------------------------------------------------------------------
 (0) _main                                                26    26      0   28122
                                             25 COMRAM    26    26      0
                           _exibeSeg
                            _lcd_cmd
                            _lcd_dat
                           _lcd_init
                            _lcd_str
                            _leconta
                           _piscaLed
                               _soma
                            _subtrai
 ---------------------------------------------------------------------------------
 (1) _subtrai                                             19    11      8     629
                                              0 COMRAM    19    11      8
 ---------------------------------------------------------------------------------
 (1) _soma                                                19    11      8     583
                                              0 COMRAM    19    11      8
 ---------------------------------------------------------------------------------
 (1) _piscaLed                                             2     2      0    2312
                                              6 COMRAM     2     2      0
                          _atraso_ms
 ---------------------------------------------------------------------------------
 (1) _leconta                                             12     8      4   10259
                                             13 COMRAM    12     8      4
                          _atraso_ms
                            _lcd_cmd
                            _lcd_dat
                           _tc_tecla
 ---------------------------------------------------------------------------------
 (2) _tc_tecla                                             7     5      2    2706
                                              6 COMRAM     7     5      2
                          _atraso_ms
 ---------------------------------------------------------------------------------
 (1) _lcd_str                                              5     3      2    3229
                                              7 COMRAM     5     3      2
                            _lcd_dat
 ---------------------------------------------------------------------------------
 (2) _lcd_dat                                              1     1      0    2303
                                              6 COMRAM     1     1      0
                          _atraso_ms
                             _lcd_wr
 ---------------------------------------------------------------------------------
 (1) _lcd_init                                             0     0      0    4569
                          _atraso_ms
                            _lcd_cmd
 ---------------------------------------------------------------------------------
 (2) _lcd_cmd                                              1     1      0    2303
                                              6 COMRAM     1     1      0
                          _atraso_ms
                             _lcd_wr
 ---------------------------------------------------------------------------------
 (3) _lcd_wr                                               1     1      0      15
                                              0 COMRAM     1     1      0
 ---------------------------------------------------------------------------------
 (2) _atraso_ms                                            6     4      2    2266
                                              0 COMRAM     6     4      2
 ---------------------------------------------------------------------------------
 (1) _exibeSeg                                             8     4      4    1322
                                              0 COMRAM     6     2      4
 ---------------------------------------------------------------------------------
 Estimated maximum stack depth 3
 ---------------------------------------------------------------------------------

 Call Graph Graphs:

 _main (ROOT)
   _exibeSeg
   _lcd_cmd
     _atraso_ms
     _lcd_wr
   _lcd_dat
     _atraso_ms
     _lcd_wr
   _lcd_init
     _atraso_ms
     _lcd_cmd
       _atraso_ms
       _lcd_wr
   _lcd_str
     _lcd_dat
       _atraso_ms
       _lcd_wr
   _leconta
     _atraso_ms
     _lcd_cmd
       _atraso_ms
       _lcd_wr
     _lcd_dat
       _atraso_ms
       _lcd_wr
     _tc_tecla
       _atraso_ms
   _piscaLed
     _atraso_ms
   _soma
   _subtrai

 Address spaces:
Name               Size   Autos  Total    Cost      Usage
BIGRAM             5FF      0       0      17        0.0%
EEDATA             100      0       0       0        0.0%
BITBANK5           100      0       0      16        0.0%
BANK5              100      0       0      14        0.0%
BITBANK4           100      0       0      12        0.0%
BANK4              100      0       0      13        0.0%
BITBANK3           100      0       0      10        0.0%
BANK3              100      0       0      11        0.0%
BITBANK2           100      0       0       8        0.0%
BANK2              100      0       0       9        0.0%
BITBANK1           100      0       0       6        0.0%
BANK1              100      0       0       7        0.0%
BITBANK0            80      0       0       4        0.0%
BANK0               80      0       0       5        0.0%
BITCOMRAM           7F      0       0       0        0.0%
COMRAM              7F     33      41       1       51.2%
BITSFR               0      0       0     200        0.0%
SFR                  0      0       0     200        0.0%
STACK                0      0       0       2        0.0%
NULL                 0      0       0       0        0.0%
ABS                  0      0      41      15        0.0%
DATA                 0      0      41       3        0.0%
CODE                 0      0       0       0        0.0%


Microchip Technology PIC18 Macro Assembler V2.20 build 20200408173844 
Symbol Table                                                                                   Tue Dec 08 18:46:59 2020

                     l23 11BE                       l26 0AC8                       l77 0ADE  
                     l93 14B8                       l95 14C8                       l88 13C4  
                     l89 13D4                       l99 12BC                      l102 12CC  
                    l112 152C                      l120 165A                      l200 0B60  
                    l123 1630                      l132 15D8                      l117 1670  
                    l126 1588                      l152 0F34                      l154 0F1C  
                    l147 0EF4                      l164 0F9C                      l157 0F74  
                    l149 0EDE                      l174 1052                      l159 0F5C  
                    l915 166C                      u900 14EA                      u901 14E6  
                    u910 1502                      u911 14FE                      u920 152C  
                    u921 1528                      u930 0EC4                      u931 0EC0  
                    u940 0EDE                      u941 0EDA                      u950 0EEC  
                    u951 0EE8                      u960 0F02                      u961 0EFE  
                    u970 0F1C                      u971 0F18                      u980 0F2A  
                    u981 0F26                      u990 0F42                      u991 0F3E  
                   l2001 0A16                     l2011 0A46                     l2003 0A1A  
                   l2021 0A84                     l2013 0A58                     l2005 0A2C  
                   l2101 149E                     l2031 0AA2                     l2023 0A88  
                   l2015 0A5C                     l2007 0A30                     l2111 11F2  
                   l2103 11C0                     l2041 0AB2                     l2033 0AA4  
                   l2025 0A9A                     l2017 0A6E                     l2009 0A42  
                   l2121 152E                     l2113 122A                     l2043 0AD6  
                   l2027 0A9E                     l2019 0A72                     l2123 1532  
                   l2131 15AE                     l2051 12EE                     l2115 1298  
                   l2211 0C6E                     l2029 0AA0                     l2125 153E  
                   l2133 15B0                     l2061 1354                     l2053 12F2  
                   l2045 12CE                     l2117 129C                     l2109 11C8  
                   l2301 0E1A                     l2221 0C9E                     l2213 0C76  
                   l2205 0C3C                     l2141 0AFE                     l2039 0AAE  
                   l2127 158A                     l2063 1364                     l2055 1304  
                   l2047 12DA                     l2119 12A2                     l2311 0E48  
                   l2303 0E1C                     l2223 0CA0                     l2215 0C7C  
                   l2207 0C4E                     l2231 0CAC                     l2151 0B1E  
                   l2143 0B04                     l2135 0AE0                     l2129 1592  
                   l2081 13AC                     l2065 136A                     l2057 1332  
                   l2049 12DE                     l2321 0E66                     l2241 0CD6  
                   l2233 0CBA                     l2225 0CA2                     l2217 0C88  
                   l2209 0C52                     l2305 0E24                     l2161 0B52  
                   l2153 0B24                     l2145 0B0A                     l2137 0AF8  
                   l1611 14DA                     l2075 1386                     l2067 137C  
                   l2083 13B2                     l2059 1342                     l2307 0E36  
                   l2251 0D34                     l2243 0CF2                     l2235 0CBE  
                   l2227 0CA4                     l2219 0C9C                     l2171 0B86  
                   l2163 0B64                     l2155 0B30                     l2147 0B16  
                   l2139 0AFC                     l1621 1506                     l1701 1048  
                   l2077 139A                     l2069 1382                     l2085 13B4  
                   l2093 13DE                     l2317 0E50                     l2309 0E3C  
                   l2261 0D5A                     l2253 0D40                     l2245 0D26  
                   l2237 0CC4                     l2229 0CAA                     l2181 0BB6  
                   l2173 0B92                     l2165 0B76                     l2157 0B36  
                   l2149 0B1A                     l1615 14EE                     l1631 1516  
                   l1607 14CA                     l1711 1612                     l1703 104C  
                   l2079 139C                     l2095 140E                     l2087 13D6  
                   l2319 0E62                     l2271 0D76                     l2263 0D5C  
                   l2255 0D54                     l2247 0D2A                     l2239 0CCA  
                   l2191 0C0A                     l2183 0BD8                     l2175 0BAE  
                   l2167 0B7A                     l2159 0B44                     l1625 150C  
                   l1617 14F2                     l1609 14D6                     l1721 1634  
                   l1713 1614                     l1633 0E8A                     l1801 1198  
                   l2097 142A                     l2281 0DDE                     l2273 0D7C  
                   l2265 0D62                     l2257 0D56                     l2249 0D2E  
                   l2185 0BDC                     l2169 0B80                     l2193 0C0E  
                   l1811 069C                     l1731 164C                     l1723 1636  
                   l1715 1620                     l1707 160A                     l1643 0EA2  
                   l1635 0E96                     l1803 119C                     l2099 1498  
                   l2291 0E0C                     l2283 0DE2                     l2275 0D82  
                   l2259 0D58                     l2267 0D64                     l2195 0C1C  
                   l2187 0BF8                     l1901 084C                     l1821 06C2  
                   l1813 06A0                     l1629 1512                     l1733 1658  
                   l1725 163C                     l1717 1622                     l1709 160C  
                   l1661 0F2A                     l1653 0EEC                     l1645 0EB6  
                   l1637 0E9E                     l1805 11A0                     l1741 106C  
                   l2293 0E0E                     l2285 0DE6                     l2277 0D8E  
                   l2269 0D72                     l2197 0C28                     l2189 0BFE  
                   l1911 087C                     l1903 0850                     l1831 06F2  
                   l1823 06C6                     l1815 06A4                     l1727 163E  
                   l1719 162E                     l1671 0F82                     l1663 0F42  
                   l1655 0F02                     l1647 0EC4                     l1807 11A4  
                   l1751 109C                     l1743 1074                     l1735 1054  
                   l2295 0E10                     l2287 0DEC                     l2279 0DAA  
                   l2199 0C34                     l1921 0898                     l1913 088E  
                   l1905 0862                     l1841 0730                     l1833 0704  
                   l1825 06D8                     l1817 06A8                     l1809 069A  
                   l1729 164A                     l1681 0FC6                     l1673 0F8E  
                   l1665 0F4E                     l1657 0F0E                     l1649 0ED0  
                   l1761 10D0                     l1753 10A8                     l1745 1080  
                   l2297 0E12                     l2289 0DF8                     l1931 08BC  
                   l1915 0892                     l1907 0866                     l1851 0760  
                   l1843 0734                     l1835 0708                     l1827 06DC  
                   l1819 06B0                     l1691 1002                     l1683 0FC8  
                   l1771 10FC                     l1763 10D4                     l1755 10AC  
                   l1747 1084                     l2299 0E14                     l1941 08FA  
                   l1933 08CE                     l1917 0894                     l1909 0878  
                   l1861 078E                     l1853 0772                     l1845 0746  
                   l1837 071A                     l1829 06EE                     l1693 1014  
                   l1677 0FAA                     l1669 0F6A                     l1685 0FD8  
                   l1781 1128                     l1773 1100                     l1765 10D8  
                   l1757 10B0                     l1749 1088                     l1951 092A  
                   l1943 08FE                     l1935 08D2                     l1927 08A2  
                   l1919 0896                     l1871 079C                     l1863 0790  
                   l1855 0776                     l1847 074A                     l1839 071E  
                   l1695 1024                     l1687 0FE4                     l1679 0FB4  
                   l1791 1164                     l1783 113C                     l1775 1114  
                   l1767 10EC                     l1759 10C4                     l1961 0968  
                   l1953 093C                     l1945 0910                     l1937 08E4  
                   l1929 08A6                     l1881 07DE                     l1873 07A0  
                   l1865 0792                     l1857 0788                     l1849 075C  
                   l1697 1034                     l1689 0FEC                     l1793 1170  
                   l1785 1148                     l1777 1120                     l1769 10F8  
                   l1971 0998                     l1963 096C                     l1955 0940  
                   l1947 0914                     l1939 08E8                     l1891 080E  
                   l1883 07E2                     l1875 07B6                     l1859 078C  
                   l1699 1036                     l1795 1174                     l1787 114C  
                   l1779 1124                     l1973 099A                     l1965 097E  
                   l1957 0952                     l1949 0926                     l1893 0820  
                   l1885 07F4                     l1877 07C8                     l1797 1178  
                   l1789 1150                     l1991 09D8                     l1983 09A8  
                   l1975 099C                     l1967 0982                     l1959 0956  
                   l1895 0824                     l1887 07F8                     l1879 07CC  
                   l1799 118C                     l1993 09EA                     l1985 09AC  
                   l1977 099E                     l1969 0994                     l1897 0836  
                   l1889 080A                     l1995 09EE                     l1987 09C2  
                   l1899 083A                     l1997 0A00                     l1989 09D4  
                   l1999 0A04                     STR_1 0629                     STR_2 0605  
                   STR_3 0688                     STR_4 0672                     STR_5 067D  
                   STR_6 064C                     STR_7 0665                     STR_8 064C  
                   STR_9 0690                     u1000 0F5C                     u1001 0F58  
                   u1010 0F6A                     u1011 0F66                     u1100 1048  
                   u1020 0F82                     u1101 1044                     u1021 0F7E  
                   u1030 0F9C                     u1110 11BE                     u1031 0F98  
                   u1111 11BA                     u1200 0772                     u1120 06C2  
                   u1040 0FAA                     u1201 076E                     u1121 06BE  
                   u1041 0FA6                     u1210 0788                     u1130 06D8  
                   u1050 0FD8                     u1211 0784                     u1131 06D4  
                   u1051 0FD4                     u1300 0862                     u1220 07B6  
                   u1140 06EE                     u1060 1002                     u1301 085E  
                   u1221 07B2                     u1141 06EA                     u1061 0FFE  
                   u1310 0878                     u1230 07C8                     u1150 0704  
                   u1070 1014                     u1311 0874                     u1231 07C4  
                   u1151 0700                     u1071 1010                     u1400 0952  
                   u1320 088E                     u1240 07DE                     u1160 071A  
                   u1080 1024                     u1401 094E                     u1321 088A  
                   u1241 07DA                     u1161 0716                     u1081 1020  
                   u1410 0968                     u1330 08BC                     u1250 07F4  
                   u1170 0730                     u1090 1034                     u1411 0964  
                   u1331 08B8                     u1251 07F0                     u1171 072C  
                   u1091 1030                     u1500 0A42                     u1420 097E  
                   u1340 08CE                     u1260 080A                     u1180 0746  
                   u1501 0A3E                     u1421 097A                     u1341 08CA  
                   u1261 0806                     u1181 0742                     u1510 0A58  
                   u1430 0994                     u1350 08E4                     u1270 0820  
                   u1190 075C                     u1511 0A54                     u1431 0990  
                   u1351 08E0                     u1271 081C                     u1191 0758  
                   u1520 0A6E                     u1440 09C2                     u1360 08FA  
                   u1280 0836                     u1600 137C                     u1521 0A6A  
                   u1441 09BE                     u1361 08F6                     u1281 0832  
                   u1601 1378                     u1530 0A84                     u1450 09D4  
                   u1370 0910                     u1290 084C                     u1610 13AC  
                   u1531 0A80                     u1451 09D0                     u1371 090C  
                   u1291 0848                     u1611 13A8                     u1540 0A9A  
                   u1460 09EA                     u1380 0926                     u1620 13C4  
                   u1700 0B60                     u1541 0A96                     u1461 09E6  
                   u1381 0922                     u1621 13C0                     u1701 0B5C  
                   u1550 0AC8                     u1470 0A00                     u1390 093C  
                   u1630 142A                     u1710 0B76                     u1551 0AC4  
                   u1471 09FC                     u1391 0938                     u1631 1426  
                   u1711 0B72                     u1560 0AD6                     u1480 0A16  
                   u1640 14B8                     u1720 0BF8                     u1561 0AD2  
                   u1481 0A12                     u1641 14B4                     u1721 0BF4  
                   u1490 0A2C                     u1570 1304                     u1650 11F2  
                   u1730 0C1C                     u1491 0A28                     u1571 1300  
                   u1651 11EE                     u1731 0C18                     u1580 1332  
                   u1660 12BC                     u1740 0C6E                     u1581 132E  
                   u1661 12B8                     u1741 0C6A                     u1670 15D8  
                   u1590 1354                     u1750 0CBA                     u1671 15D4  
                   u1591 1350                     u1751 0CB6                     u1760 0D72  
                   u1680 0B44                     u1761 0D6E                     u1681 0B40  
                   u1770 0E36                     u1690 0B52                     u1771 0E32  
                   u1691 0B4E                     u1780 0E82                     u1781 0E7E  
                   _main 0AE0                     _soma 13D6                     indf1 000FE7  
                   indf2 000FDF                     fsr1l 000FE1                     fsr2l 000FD9  
                   start 0000             ___param_bank 000000                    ?_main 0001  
                  STR_10 064C                    STR_11 0687                    ?_soma 0001  
        __end_of_lcd_dat 1632          __end_of_lcd_cmd 165C          __end_of_lcd_str 15DA  
        __end_of_leconta 13D6                    _linha 0601                    main@h 002E  
                  tablat 000FF5                    soma@i 0012                    status 000FD8  
        __end_of_subtrai 12CE          __initialization 15DA             __end_of_main 0E8A  
           __end_of_soma 14CA                   ??_main 001A                   ??_soma 0009  
          __activetblptr 000001          tc_tecla@timeout 0007         __end_of_lcd_init 158A  
       __end_of_exibeSeg 0AE0                   _lcd_wr 166A                   _atraso 0034  
              ??_lcd_dat 0007                ??_lcd_cmd 0007         __end_of_tc_tecla 1054  
              ??_lcd_str 000A         __end_of_piscaLed 11C0                ??_leconta 0012  
           __pdataCOMRAM 0034             __mediumconst 0000                   tblptrh 000FF7  
                 tblptrl 000FF6                   tblptru 000FF8                ??_subtrai 0009  
             __accesstop 0080  __end_of__initialization 15FA             leconta@saldo 0016  
          ___rparam_used 000001           __pcstackCOMRAM 0001            __end_of_linha 0605  
           subtrai@saldo 0001       __size_of_atraso_ms 0064              tc_tecla@ret 000C  
            tc_tecla@tmp 000B                  ?_lcd_wr 0001                ?_lcd_init 0001  
             _atrasoMax2 003A               _atraso_min 0036                ?_exibeSeg 0001  
              ?_tc_tecla 0007                ?_piscaLed 0001                  __Hparam 0000  
                __Lparam 0000        __end_of_atraso_ms 152E             __psmallconst 0600  
        __size_of_lcd_wr 0008                  __pcinit 15DA                  __ramtop 0600  
                __ptext0 0AE0                  __ptext1 11C0                  __ptext2 13D6  
                __ptext3 1054                  __ptext4 12CE                  __ptext5 0E8A  
                __ptext6 158A                  __ptext7 1608                  __ptext8 152E  
                __ptext9 1632                  _lcd_dat 1608                  _lcd_cmd 1632  
                _lcd_str 158A                  _leconta 12CE                  main@dep 001B  
                _subtrai 11C0                  main@est 002D                  main@sac 001F  
             ??_lcd_init 0008     end_of_initialization 15FA               ??_exibeSeg 0005  
             ??_tc_tecla 0009               ??_piscaLed 0007                  soma@dep 0005  
                postdec1 000FE5                  postinc0 000FEE                  postinc1 000FE6  
                postinc2 000FDE               lcd_dat@val 0007               lcd_cmd@val 0007  
             lcd_str@str 0008               atraso_ms@i 0003               atraso_ms@j 0005  
             atraso_ms@k 0006               atraso_ms@t 0001            __pidataCOMRAM 165C  
         __end_of_lcd_wr 1672      start_initialization 15DA               leconta@tmp 0015  
               ??_lcd_wr 0001            exibeSeg@saldo 0001        __size_of_lcd_init 005C  
      __size_of_exibeSeg 0446               tc_tecla@to 0009        __size_of_tc_tecla 01CA  
      __size_of_piscaLed 016C                 ?_lcd_dat 0001                 ?_lcd_cmd 0001  
               ?_lcd_str 0008                _atrasoLed 0038                _atrasoMed 003E  
              _atrasoMax 003C                _atrasoMin 0040                _atraso_ms 14CA  
               ?_leconta 000E              __smallconst 0600                 ?_subtrai 0001  
              main@h_141 0029                main@h_151 002B               ?_atraso_ms 0001  
              main@conta 0025                lcd_wr@val 0001                main@saldo 0030  
              copy_data0 15EE                leconta@op 000E                exibeSeg@k 0005  
               __Hrparam 0000                 __Lrparam 0000             __Lsmallconst 0600  
             subtrai@sac 0005         __size_of_lcd_dat 002A         __size_of_lcd_cmd 002A  
       __size_of_lcd_str 0050         __size_of_leconta 0108                tc_tecla@i 000D  
               __ptext10 166A                 __ptext11 14CA                 __ptext12 069A  
              piscaLed@l 0007                 _lcd_init 152E         __size_of_subtrai 010E  
               _exibeSeg 069A            __size_of_main 03AA            __size_of_soma 00F4  
               _tc_tecla 0E8A                 _piscaLed 1054                soma@saldo 0001  
               main@flag 0023                 lcd_str@i 000C              ??_atraso_ms 0003  
               leconta@i 0013                 leconta@j 0014                 subtrai@i 0012  
